(lp1
S'integer'
p2
a.(lp1
S'no_type'
p2
a.(lp1
S'no_type'
p2
a.(lp1
S'integer'
p2
a.(lp1
.(lp1
S'no_type'
p2
a.(lp1
S'integer'
p2
a.(lp1
S'integer'
p2
a.(lp1
S'no_type'
p2
a.(lp1
S'no_type'
p2
a.(lp1
S'no_type'
p2
a.(lp1
S'no_type'
p2
a.(lp1
S'no_type'
p2
a.(lp1
S'no_type'
p2
a.(lp1
S'no_type'
p2
a.(lp1
S'no_type'
p2
a.(lp1
S'integer'
p2
a.(lp1
.(lp1
S'no_type'
p2
a.(lp1
S'integer'
p2
a.