(lp1
.(lp1
S'v57'
p2
aS'tq'
p3
a.(lp1
S'q'
aS'id'
p2
a.(lp1
S'uid'
p2
aS'tm'
p3
aS'cht'
p4
aS'v'
aS'os'
p5
aS'r1'
p6
a.(lp1
.(lp1
.(lp1
S'6bad6'
p2
a.(lp1
S'71d69'
p2
a.(lp1
S'c'
aS'v'
a.(lp1
S'el'
p2
aS'asv'
p3
aS'fmt'
p4
aS'video_id'
p5
aS't'
aS'noflv'
p6
a.(lp1
.(lp1
S'71d69'
p2
a.(lp1
S'ver'
p2
aS'rnd'
p3
a.(lp1
S'c'
aS't'
a.(lp1
S'a63ab'
p2
a.(lp1
S'ticket'
p2
aS'page'
p3
a.(lp1
S'g'
a.(lp1
S'ver'
p2
aS'rnd'
p3
a.(lp1
S'aff'
p2
aS'type'
p3
a.(lp1
S'zugo'
p2
aS'offerbox'
p3
aS'alot'
p4
aS'bandoo'
p5
aS'distid'
p6
aS'oberon'
p7
a.(lp1
S'qp'
p2
aS'adu'
p3
aS'zone'
p4
aS'chad'
p5
aS'image'
p6
aS'lq'
p7
aS'pid'
p8
aS'nid'
p9
aS'memkey'
p10
aS'spid'
p11
aS'sid'
p12
aS'adtype'
p13
aS'orid'
p14
a.(lp1
.(lp1
.(lp1
.(lp1
S't'
a.(lp1
S'ini'
p2
a.(lp1
S'b1bdf'
p2
a.(lp1
S'c'
a.(lp1
S'92781'
p2
a.(lp1
.(lp1
S'rnd'
p2
a.(lp1
S'fm'
p2
aS'kw'
p3
aS'id'
p4
aS'nid'
p5
aS'st'
p6
a.(lp1
S'a26e0'
p2
a.(lp1
S'85e36'
p2
a.(lp1
S'90061'
p2
a.(lp1
S'9fa33'
p2
a.(lp1
.(lp1
S'c'
aS'v'
a.(lp1
S'tq'
p2
a.(lp1
.(lp1
S'logdata'
p2
aS'appcheck'
p3
aS'pid'
p4
aS'ver'
p5
aS'prj'
p6
a.(lp1
.(lp1
S'ver'
p2
aS'rnd'
p3
a.(lp1
.(lp1
S'7566b'
p2
a.(lp1
S'udata'
p2
a.(lp1
S'9e488'
p2
a.(lp1
.(lp1
S'adec6'
p2
a.(lp1
S'c'
aS't'
a.(lp1
S'a02fd'
p2
a.(lp1
S'ver'
p2
aS'err'
p3
aS'u_name'
p4
aS'sver'
p5
aS'aver'
p6
aS'system_ver'
p7
aS'type'
p8
a.(lp1
S'action'
p2
aS'value'
p3
a.(lp1
S'd'
aS'tp'
p2
aS't'
aS'no_cj_c'
p3
aS'sid'
p4
aS'upsid'
p5
a.(lp1
.(lp1
S'ver'
p2
aS'rnd'
p3
a.(lp1
S'ad_size'
p2
aS'ad_type'
p3
aS'section'
p4
a.(lp1
S'ver'
p2
aS'rnd'
p3
a.(lp1
S'ver'
p2
aS'rnd'
p3
a.(lp1
S'id'
p2
a.(lp1
.(lp1
S'on'
p2
aS'ver'
p3
aS'uid'
p4
aS'tn'
p5
aS'adcount'
p6
aS'iesearch'
p7
aS'history'
p8
a.(lp1
S'79076'
p2
a.(lp1
.(lp1
.(lp1
S'ver'
p2
aS'rnd'
p3
a.(lp1
.(lp1
.(lp1
S'rnd'
p2
aS'r'
aS'l'
aS'pos'
p3
a.(lp1
.(lp1
S'01NA'
p2
aS'01RI'
p3
aS'01AD'
p4
a.(lp1
S'v.offer'
p2
aS'v.sid'
p3
a.(lp1
.(lp1
.(lp1
.(lp1
.(lp1
S'CMD'
p2
a.(lp1
.(lp1
.(lp1
S'a0e57'
p2
a.(lp1
S'ver'
p2
aS'rnd'
p3
a.(lp1
S'a9a2c'
p2
a.(lp1
S'8c3e5'
p2
a.(lp1
S'ver'
p2
aS'rnd'
p3
a.(lp1
S'rnd'
p2
a.(lp1
S'brand'
p2
aS'userid'
p3
aS'hl'
p4
aS'v'
aS'ci_app'
p5
aS'gl'
p6
a.(lp1
.(lp1
S'7b63e'
p2
a.(lp1
S'r'
a.(lp1
S'version'
p2
aS'refresh'
p3
a.(lp1
S'ver'
p2
aS'rnd'
p3
a.(lp1
.(lp1
.(lp1
S'77906'
p2
a.(lp1
S'773d6'
p2
a.(lp1
S'v.offer'
p2
aS'v.sid'
p3
a.(lp1
S'fire'
p2
aS's'
aS'g'
aS'key'
p3
aS'uuid'
p4
a.(lp1
S'c'
aS't'
aS'v'
a.(lp1
.(lp1
S'lid'
p2
aS'v'
aS'id'
p3
aS'l'
a.(lp1
S'I'
aS'U'
aS'D'
aS'01AD'
p2
aS'V'
a.(lp1
S'a3d46'
p2
a.(lp1
S't'
a.(lp1
.(lp1
.(lp1
S'75987'
p2
a.(lp1
.(lp1
S'ver'
p2
aS'rnd'
p3
a.(lp1
S'aea9d'
p2
a.(lp1
.(lp1
.(lp1
S'b'
aS'tm'
p2
aS'br'
p3
aS'v'
aS'os'
p4
aS'id'
p5
a.(lp1
S't'
a.(lp1
.(lp1
S'ad_size'
p2
aS'ad_type'
p3
aS'section'
p4
a.(lp1
.(lp1
S'90dcf'
p2
a.(lp1
S'7a18d'
p2
a.(lp1
S'bt'
p2
aS'pz'
p3
aS'rnd'
p4
aS'tail256'
p5
aS'sid'
p6
a.(lp1
.(lp1
S'rtime'
p2
aS'lg'
p3
aS'showp'
p4
aS'repeatip'
p5
aS'st'
p6
aS'cnzz_eid'
p7
aS'res'
p8
aS'ntime'
p9
aS'id'
p10
a.(lp1
S'kurban'
p2
aS'bilgisayaradi'
p3
aS'serversifre'
p4
aS'serverportu'
p5
aS'ipadresi'
p6
aS'islem'
p7
aS'serversaati'
p8
aS'servermodeli'
p9
aS'servertarihi'
p10
a.(lp1
.(lp1
.(lp1
.(lp1
S'clickid'
p2
aS'UNQ'
p3
aS'click_url'
p4
aS'elims'
p5
aS'bv'
p6
aS'feed_id'
p7
aS'eid'
p8
aS'safety_check'
p9
aS'position'
p10
aS'query'
p11
a.(lp1
.(lp1
S'976ab'
p2
a.(lp1
S'udata'
p2
a.(lp1
.(lp1
S'76782'
p2
a.(lp1
S'9e6e9'
p2
a.(lp1
S'79ad6'
p2
a.(lp1
S'a9ecf'
p2
a.(lp1
.(lp1
.(lp1
S'v.offer'
p2
aS'v.sid'
p3
a.(lp1
S'gli'
p2
aS'gff'
p3
aS'gai'
p4
a.(lp1
S'XiglH1VnYhwJX0FVHWMBXksGZWBjVV0KChUAEAAKBltXHUogVg'
p2
a.(lp1
.(lp1
S't'
a.(lp1
S'85be4'
p2
a.(lp1
S'sz'
p2
aS'zone'
p3
aS'ag'
p4
aS'ed'
p5
aS'k'
aS'pos'
p6
aS'l'
aS'p'
aS't'
a.(lp1
.(lp1
.(lp1
S'7c30f'
p2
a.(lp1
S'nocache'
p2
a.(lp1
.(lp1
S'74c68'
p2
a.(lp1
S'716c2'
p2
a.(lp1
.(lp1
.(lp1
S'73352'
p2
a.(lp1
S'ver'
p2
aS'rnd'
p3
a.(lp1
S'849a4'
p2
a.(lp1
S'77dd8'
p2
a.(lp1
S'network'
p2
aS'jsonp'
p3
aS'type'
p4
aS'ts'
p5
aS'sessionType'
p6
a.(lp1
.(lp1
.(lp1
S'6c381'
p2
a.(lp1
S'ss'
p2
aS'aspcode'
p3
aS'Query'
p4
a.(lp1
.(lp1
S'repeat'
p2
aS'nocache'
p3
a.(lp1
S'ipua_id'
p2
aS'search_id'
p3
aS'time'
p4
a.(lp1
.(lp1
S'kXqEdA'
p2
a.(lp1
S'url'
p2
aS'remote_auth_s3'
p3
aS'api_key'
p4
aS'developer'
p5
a.(lp1
S'adv'
p2
a.(lp1
.(lp1
.(lp1
S'acc'
p2
aS'dm'
p3
a.(lp1
S'ver'
p2
aS'rnd'
p3
a.(lp1
.(lp1
S'epl'
p2
a.(lp1
S'URLRND'
p2
a.(lp1
S'ver'
p2
aS'rnd'
p3
a.(lp1
S'sid'
p2
a.(lp1
.(lp1
.(lp1
.(lp1
S'ver'
p2
aS'rnd'
p3
a.(lp1
.(lp1
S'id'
p2
a.(lp1
S'id'
p2
a.(lp1
S'oas'
p2
a.(lp1
S'aid'
p2
a.(lp1
S'6da55'
p2
a.(lp1
S'ver'
p2
aS'rnd'
p3
a.(lp1
S't'
a.(lp1
.(lp1
S'v.offer'
p2
aS'v.sid'
p3
a.(lp1
S'url'
p2
aS'width'
p3
aS'scheme'
p4
aS'height'
p5
a.(lp1
S'v.offer'
p2
aS'v.sid'
p3
a.(lp1
S'm'
aS'u'
aS'v'
a.(lp1
S'lang'
p2
aS'ix'
p3
aS'v.optp'
p4
aS'icversion'
p5
aS'cid'
p6
aS'locale'
p7
aS'cscid'
p8
aS'v.method'
p9
aS'con'
p10
aS'mt'
p11
aS'v.opac'
p12
aS'v.s'
p13
aS'SAIRND'
p14
aS'chid'
p15
aS'hdid'
p16
aS'tid'
p17
aS'v.installername'
p18
aS'browser'
p19
aS'os'
p20
aS'cc'
p21
aS'icname'
p22
a.(lp1
S'8625c'
p2
a.(lp1
S'frandom'
p2
a.(lp1
S'200'
p2
aS'ses'
p3
aS'21'
p4
aS'crc'
p5
aS'681'
p6
aS'cv'
p7
a.(lp1
.(lp1
S'gclid'
p2
aS'ctc_id'
p3
aS'ct_cookie_present'
p4
aS'value'
p5
aS'label'
p6
a.(lp1
.(lp1
S'rtime'
p2
aS'lg'
p3
aS'showp'
p4
aS'ntime'
p5
aS'repeatip'
p6
aS'aN'
p7
aS'cnzz_eid'
p8
aS'aV'
p9
aS'agt'
p10
aS'OS'
p11
aS'id'
p12
a.(lp1
.(lp1
S'v.offer'
p2
aS'v.sid'
p3
a.(lp1
S'tq'
p2
a.(lp1
S'oo'
p2
aS'jutr'
p3
aS'ra'
p4
aS'7c820'
p5
a.(lp1
S'ver'
p2
aS'rnd'
p3
a.(lp1
S'c'
aS't'
aS'v'
a.(lp1
.(lp1
S'8ac94'
p2
a.(lp1
S'autch'
p2
aS'id'
p3
aS'img'
p4
a.(lp1
S'a0acd'
p2
a.(lp1
.(lp1
S'b5994'
p2
a.(lp1
.(lp1
S'9f9a6'
p2
a.(lp1
S'rfr'
p2
aS'GUID'
p3
aS'type'
p4
aS'bgn'
p5
aS'standalone'
p6
a.(lp1
S'v'
aS'sid'
p2
a.(lp1
S't'
a.(lp1
.(lp1
S'rnd'
p2
a.(lp1
S'u'
a.(lp1
.(lp1
.(lp1
S'ver'
p2
aS'rnd'
p3
a.(lp1
S'u_tz'
p2
aS'u_his'
p3
aS'adtest'
p4
aS'u_h'
p5
aS'domain_name'
p6
aS'u_w'
p7
aS'callback'
p8
aS's'
aS'client'
p9
aS'kw'
p10
aS'frm'
p11
aS'output'
p12
aS'num_ads'
p13
aS'dt'
p14
aS'channel'
p15
aS'num_radlinks'
p16
a.(lp1
S'v.offer'
p2
aS'v.sid'
p3
a.(lp1
.(lp1
S'_dc_ck'
p2
a.(lp1
.(lp1
S'9bc9d'
p2
a.(lp1
S'rtime'
p2
aS'lg'
p3
aS'showp'
p4
aS'repeatip'
p5
aS'st'
p6
aS'cnzz_eid'
p7
aS'res'
p8
aS'ntime'
p9
aS'id'
p10
a.(lp1
.(lp1
S'ix'
p2
aS'cc'
p3
aS'SrS3x.code'
p4
aS'SrS2x.code'
p5
aS'v.s'
p6
aS'SAIRND'
p7
aS'v.method'
p8
aS'realplayer.code'
p9
aS'chid'
p10
aS'v.optp'
p11
aS'SrS31.code'
p12
aS'v.rascsi'
p13
aS'v.opac'
p14
aS'hdid'
p15
aS'icbrandid'
p16
aS'v.installername'
p17
aS'rpgoogletb.code'
p18
aS'cid'
p19
aS'HBLite.code'
p20
aS'rpwcdesktop.code'
p21
aS'rpchrome.code'
p22
aS'browser'
p23
aS'os'
p24
aS'con'
p25
a.(lp1
S'01NA'
p2
aS'01RI'
p3
aS'01AD'
p4
a.(lp1
.(lp1
.(lp1
.(lp1
S'i'
aS'txt'
p2
aS'id'
p3
a.(lp1
S'ver'
p2
aS'rnd'
p3
a.(lp1
.(lp1
S'rnd'
p2
a.(lp1
S'rnd'
p2
a.(lp1
S'B'
aS'anmember'
p2
aS's'
aS'r'
aS'_salt'
p3
aS'Z'
a.(lp1
.(lp1
S'831b7'
p2
a.(lp1
.(lp1
S'ver'
p2
aS'rnd'
p3
a.(lp1
S'ver'
p2
aS'rnd'
p3
a.(lp1
.(lp1
S't'
a.(lp1
S'c'
aS't'
aS'v'
a.(lp1
S'95fe7'
p2
a.(lp1
.(lp1
S'v.offer'
p2
aS'v.sid'
p3
a.(lp1
S'ver'
p2
aS'rnd'
p3
a.(lp1
S'872d7'
p2
a.(lp1
S'ver'
p2
aS'rnd'
p3
a.(lp1
.(lp1
S'lang'
p2
aS'ix'
p3
aS'icversion'
p4
aS'cid'
p5
aS'locale'
p6
aS'cscid'
p7
aS'v.method'
p8
aS'con'
p9
aS'D_ts'
p10
aS'mt'
p11
aS'SAIRND'
p12
aS'D_loc'
p13
aS'hdid'
p14
aS'tid'
p15
aS'chid'
p16
aS'v.installername'
p17
aS'browser'
p18
aS'os'
p19
aS'D_tzo'
p20
aS'cc'
p21
aS'icname'
p22
a.(lp1
S'ver'
p2
aS'rnd'
p3
a.(lp1
.(lp1
.(lp1
S'78eff'
p2
a.(lp1
S'ver'
p2
aS'rnd'
p3
a.(lp1
S'9ecd5'
p2
a.(lp1
S'ver'
p2
aS'rnd'
p3
a.(lp1
.(lp1
S't'
a.(lp1
S'win'
p2
a.(lp1
S'a'
aS'c'
aS'e'
aS'm'
aS'l'
aS's'
aS't'
a.(lp1
.(lp1
S't'
a.(lp1
.(lp1
.(lp1
S't'
aS'm'
aS'd'
aS'tp'
p2
aS'sid'
p3
a.(lp1
S'tgid'
p2
aS'url'
p3
aS'ver'
p4
aS'address'
p5
a.(lp1
S'mac'
p2
aS'xxx'
p3
a.(lp1
S'rnd'
p2
a.(lp1
.(lp1
.(lp1
.(lp1
S'7a43c'
p2
a.(lp1
S'partner_uid'
p2
a.(lp1
S'rnd'
p2
a.(lp1
S'DA_VI_LOHI_PODOBOSRETES_KAK_V_90x'
p2
a.(lp1
.(lp1
S'utmsc'
p2
aS'utmhid'
p3
aS'utmac'
p4
aS'utmwv'
p5
aS'utmr'
p6
aS'utmn'
p7
aS'utmhn'
p8
aS'utmp'
p9
aS'utmdt'
p10
aS'utmsr'
p11
aS'utmcs'
p12
aS'utmu'
p13
aS'utmul'
p14
aS'utmfl'
p15
aS'utmje'
p16
aS'utmcc'
p17
a.(lp1
S'ver'
p2
aS'rnd'
p3
a.(lp1
.(lp1
S'ver'
p2
aS'rnd'
p3
a.(lp1
S'ver'
p2
aS'rnd'
p3
a.(lp1
.(lp1
S'8c32a'
p2
a.(lp1
S'a448a'
p2
a.(lp1
S'rnd'
p2
a.(lp1
S'rnd'
p2
a.(lp1
S'max'
p2
aS'pt'
p3
aS'ec'
p4
aS'query'
p5
a.(lp1
S'm'
aS'u'
aS'v'
a.(lp1
S'79e9f'
p2
a.(lp1
S'rnd'
p2
a.(lp1
S'6fd2f'
p2
a.(lp1
.(lp1
S'rnd'
p2
a.(lp1
S'b3320'
p2
a.(lp1
S'u'
aS's'
aS'Z'
aS'r'
aS'_salt'
p2
a.(lp1
.(lp1
.(lp1
S'c'
aS't'
aS'v'
a.(lp1
S'ad_size'
p2
aS'ad_type'
p3
aS'section'
p4
a.(lp1
S'ver'
p2
aS'rnd'
p3
a.(lp1
.(lp1
S'utmac'
p2
aS'utmwv'
p3
aS'utmn'
p4
aS'utmhn'
p5
aS'utmcc'
p6
aS'utmt'
p7
aS'gaq'
p8
a.(lp1
S'7a67f'
p2
a.(lp1
S'763b9'
p2
a.(lp1
S'7d02e'
p2
a.(lp1
S'q'
aS'm'
a.(lp1
.(lp1
S'c'
a.(lp1
S'ver'
p2
aS'rnd'
p3
a.(lp1
S'7f328'
p2
a.(lp1
S'm'
aS'g'
a.(lp1
.(lp1
S'842fd'
p2
a.(lp1
S'6c92e'
p2
a.(lp1
.(lp1
.(lp1
S'ver'
p2
aS'rnd'
p3
a.(lp1
.(lp1
.(lp1
S'v.offer'
p2
aS'v.sid'
p3
a.(lp1
.(lp1
.(lp1
S'a3b91'
p2
a.(lp1
S'fflu'
p2
aS'apn_dbr'
p3
aS'iev'
p4
aS'clientv'
p5
aS'client'
p6
aS'ielu'
p7
aS'browser-lang'
p8
aS'cr'
p9
aS'iedis'
p10
aS'tb'
p11
aS'id'
p12
a.(lp1
S'768e9'
p2
a.(lp1
S'ver'
p2
aS'rnd'
p3
a.(lp1
S'version'
p2
aS'fxp'
p3
a.(lp1
S'B'
aS's'
aS'r'
aS'u'
aS'_salt'
p2
aS'Z'
a.(lp1
.(lp1
S'73863'
p2
a.(lp1
.(lp1
S'c'
aS't'
aS'v'
a.(lp1
S'qy'
p2
aS'bn'
p3
a.(lp1
S'8079a'
p2
a.(lp1
S'ver'
p2
aS'rnd'
p3
a.(lp1
S'ch'
p2
aS'dim'
p3
aS'z'
aS'ajecscp'
p4
a.(lp1
S'e'
aS'f'
a.(lp1
S'ver'
p2
aS'rnd'
p3
a.(lp1
S'z_ujava'
p2
aS'z_c_url'
p3
aS'z_scd'
p4
aS'z_sh'
p5
aS'z_utz'
p6
aS'zoneid'
p7
aS'z_uid'
p8
aS'z_sw'
p9
aS'z_uc_ks'
p10
aS'z_ufv'
p11
aS'u_a_type'
p12
a.(lp1
S'rnd'
p2
a.(lp1
S'cpt'
p2
a.(lp1
S'SAIRND'
p2
a.(lp1
S'utmsc'
p2
aS'utmhid'
p3
aS'utmac'
p4
aS'utmwv'
p5
aS'utmr'
p6
aS'utmn'
p7
aS'utmhn'
p8
aS'utmp'
p9
aS'utmdt'
p10
aS'utmsr'
p11
aS'utmcs'
p12
aS'utmul'
p13
aS'utmfl'
p14
aS'utmje'
p15
aS'utmcn'
p16
aS'utmcc'
p17
a.(lp1
S'a510d'
p2
a.(lp1
S'9d8ef'
p2
a.(lp1
S'adv'
p2
aS'code1'
p3
aS'code2'
p4
aS'b'
aS'c'
aS'p'
aS'id'
p5
a.(lp1
.(lp1
S'B'
aS's'
aS'r'
aS'u'
aS'_salt'
p2
aS'Z'
a.(lp1
S'cb'
p2
aS'charset'
p3
aS'loc'
p4
aS'zoneid'
p5
a.(lp1
S's'
a.(lp1
S'clickTAG'
p2
aS'clickTARGET'
p3
a.(lp1
S'77f7e'
p2
a.(lp1
S'8577f'
p2
a.(lp1
S'rnd'
p2
a.(lp1
S'rnd'
p2
a.(lp1
S'uid'
p2
a.(lp1
S'ver'
p2
aS'rnd'
p3
a.(lp1
S'uid'
p2
aS'tm'
p3
aS'cht'
p4
aS'v'
aS'os'
p5
aS'r1'
p6
a.(lp1
S'a4a56'
p2
a.(lp1
.(lp1
.(lp1
S'c'
aS't'
aS'v'
a.(lp1
S'7b13d'
p2
a.(lp1
S'username'
p2
aS'area'
p3
aS'mac'
p4
aS'rank'
p5
aS'server'
p6
aS'pwd'
p7
aS'channel'
p8
a.(lp1
.(lp1
S'utmsc'
p2
aS'utmhid'
p3
aS'utmac'
p4
aS'utmwv'
p5
aS'utmr'
p6
aS'utmn'
p7
aS'utmhn'
p8
aS'utmp'
p9
aS'utmdt'
p10
aS'utmsr'
p11
aS'utmcs'
p12
aS'utmu'
p13
aS'utmul'
p14
aS'utmfl'
p15
aS'utmje'
p16
aS'utmcc'
p17
a.(lp1
S'rtime'
p2
aS'lg'
p3
aS'showp'
p4
aS'repeatip'
p5
aS'st'
p6
aS'cnzz_eid'
p7
aS'res'
p8
aS'ntime'
p9
aS'id'
p10
a.(lp1
S'id'
p2
a.(lp1
S'page-url'
p2
aS'rn'
p3
aS'site-info'
p4
aS'browser-info'
p5
aS'cnt-class'
p6
a.(lp1
S'b1d17'
p2
a.(lp1
S'affid'
p2
a.(lp1
.(lp1
.(lp1
S'adv'
p2
aS'c'
aS'id'
p3
a.(lp1
S'rtime'
p2
aS'lg'
p3
aS'showp'
p4
aS'repeatip'
p5
aS'st'
p6
aS'cnzz_eid'
p7
aS'res'
p8
aS'ntime'
p9
aS'id'
p10
a.(lp1
.(lp1
.(lp1
S'product'
p2
aS'b'
aS'e'
aS'd'
aS'language'
p3
aS'c'
aS'module'
p4
aS'MID'
p5
aS'version'
p6
aS'error'
p7
aS'y'
aS'z'
aS'OS'
p8
aS'zzz'
p9
a.(lp1
S'a534f'
p2
a.(lp1
.(lp1
S't'
a.(lp1
S'7cc18'
p2
a.(lp1
S'username'
p2
aS'ref'
p3
aS'limit'
p4
aS'ip'
p5
aS'query'
p6
aS'ua'
p7
a.(lp1
S'random'
p2
aS'nid'
p3
a.(lp1
.(lp1
.(lp1
S'9feb7'
p2
a.(lp1
S'udata'
p2
a.(lp1
S'rtime'
p2
aS'lg'
p3
aS'showp'
p4
aS'repeatip'
p5
aS'st'
p6
aS'cnzz_eid'
p7
aS'res'
p8
aS'ntime'
p9
aS'id'
p10
a.(lp1
S'data'
p2
a.(lp1
S'b6aca'
p2
a.(lp1
.(lp1
S'guid'
p2
aS'affid'
p3
a.(lp1
.(lp1
S'ver'
p2
aS'rnd'
p3
a.(lp1
S'c'
aS't'
aS'v'
a.(lp1
S'83159'
p2
a.(lp1
.(lp1
S'ver'
p2
aS'rnd'
p3
a.(lp1
S'968b1'
p2
a.(lp1
S'a7cef'
p2
a.(lp1
.(lp1
S'udata'
p2
a.(lp1
S'v.offer'
p2
aS'v.sid'
p3
a.(lp1
S'SAIRND'
p2
a.(lp1
S'72066'
p2
a.(lp1
S'7295f'
p2
a.(lp1
S'ver'
p2
aS'rnd'
p3
a.(lp1
S'a4073'
p2
a.(lp1
S'v.offer'
p2
aS'v.sid'
p3
a.(lp1
S'7077f'
p2
a.(lp1
S'6e801'
p2
a.(lp1
S'utmsc'
p2
aS'utmhid'
p3
aS'utmac'
p4
aS'utmwv'
p5
aS'utmr'
p6
aS'utmn'
p7
aS'utmhn'
p8
aS'utmp'
p9
aS'utmdt'
p10
aS'utmsr'
p11
aS'utmcs'
p12
aS'utmu'
p13
aS'utmul'
p14
aS'utmfl'
p15
aS'utmje'
p16
aS'utmcc'
p17
a.(lp1
S'v.offer'
p2
aS'v.sid'
p3
a.(lp1
S'SAIRND'
p2
a.(lp1
S'ver'
p2
aS'rnd'
p3
a.(lp1
S'c'
aS't'
a.(lp1
.(lp1
.(lp1
S'rnd'
p2
a.(lp1
.(lp1
S'7b505'
p2
a.(lp1
.(lp1
S'cbpage'
p2
aS'x'
aS'lc'
p3
aS'cbloc'
p4
a.(lp1
S'prmd'
p2
aS'ei'
p3
aS'bih'
p4
aS'noj'
p5
aS'q'
aS'start'
p6
aS'hl'
p7
aS'biw'
p8
aS'sa'
p9
a.(lp1
S'ver'
p2
aS'rnd'
p3
a.(lp1
.(lp1
S'I'
aS'U'
aS'D'
aS'01AD'
p2
aS'V'
a.(lp1
S'705e9'
p2
a.(lp1
S'docid'
p2
aS'thumbnailUrl'
p3
aS'videoUrl'
p4
aS'hl'
p5
aS'autoplay'
p6
a.(lp1
.(lp1
S'ver'
p2
aS'rnd'
p3
a.(lp1
.(lp1
S'rnd'
p2
a.(lp1
.(lp1
S't'
a.(lp1
S'97ae1'
p2
a.(lp1
.(lp1
.(lp1
S'a923c'
p2
a.(lp1
.(lp1
.(lp1
S'ver'
p2
aS'rnd'
p3
a.(lp1
S'rnd'
p2
aS'r'
aS'l'
aS'pos'
p3
a.(lp1
S'79c8c'
p2
a.(lp1
S'max'
p2
aS'pt'
p3
aS'ec'
p4
aS'query'
p5
a.(lp1
S'unq'
p2
aS'uid'
p3
aS'i'
aS'hs'
p4
aS'stid'
p5
aS'jsv'
p6
aS'r'
aS'sec'
p7
aS'pg'
p8
aS'sid'
p9
aS'ev'
p10
a.(lp1
.(lp1
S'7945e'
p2
a.(lp1
.(lp1
.(lp1
.(lp1
S'v'
aS'sid'
p2
a.(lp1
S'version'
p2
aS'refresh'
p3
a.(lp1
.(lp1
S'utmcs'
p2
aS'utmhid'
p3
aS'utmac'
p4
aS'utmwv'
p5
aS'utmr'
p6
aS'utmn'
p7
aS'utmhn'
p8
aS'utmp'
p9
aS'utmdt'
p10
aS'utmsr'
p11
aS'utms'
p12
aS'utmu'
p13
aS'utmsc'
p14
aS'utmul'
p15
aS'utmfl'
p16
aS'utmje'
p17
aS'utmcc'
p18
a.(lp1
S'ver'
p2
aS'rnd'
p3
a.(lp1
S'ver'
p2
aS'rnd'
p3
a.(lp1
S'rnd'
p2
a.(lp1
S'ref'
p2
aS'terms'
p3
a.(lp1
.(lp1
.(lp1
S'type'
p2
aS'x'
aS'site_id'
p3
aS'jsuid'
p4
aS'mime'
p5
a.(lp1
.(lp1
S'SAIRND'
p2
a.(lp1
S'a1e83'
p2
a.(lp1
S'rnd'
p2
a.(lp1
.(lp1
S'8f90e'
p2
a.(lp1
S'click'
p2
aS'time'
p3
a.(lp1
S'ver'
p2
aS'rnd'
p3
a.(lp1
S'c'
aS'cid'
p2
aS'url'
p3
aS'f'
aS'pid'
p4
aS's'
a.(lp1
.(lp1
.(lp1
S'sendparam'
p2
aS'act'
p3
a.(lp1
S'ver'
p2
aS'id'
p3
a.(lp1
S'ver'
p2
aS'rnd'
p3
a.(lp1
S'Log'
p2
aS'vid'
p3
aS'ss'
p4
aS'jv'
p5
aS'l'
aS'lt'
p6
aS'r'
aS't'
aS'v'
aS'sc'
p7
aS'hp'
p8
aS'ct'
p9
a.(lp1
S'75273'
p2
a.(lp1
.(lp1
.(lp1
S'8fe2f'
p2
a.(lp1
S'af898'
p2
a.(lp1
S'version'
p2
aS'fxp'
p3
a.(lp1
.(lp1
S'fr'
p2
aS'mkt'
p3
aS'id'
p4
aS'fid'
p5
a.(lp1
S'ver'
p2
aS'rnd'
p3
a.(lp1
S'9df96'
p2
a.(lp1
S'id'
p2
a.(lp1
S'c'
aS't'
a.(lp1
S'b43aa'
p2
a.(lp1
.(lp1
S'ver'
p2
aS'rnd'
p3
a.(lp1
S'dat'
p2
aS'cdt'
p3
aS'url'
p4
aS'ver'
p5
aS'cli'
p6
a.(lp1
S'q'
aS'aff'
p2
aS'don'
p3
a.(lp1
S'8b733'
p2
a.(lp1
S'trackid'
p2
a.(lp1
.(lp1
.(lp1
.(lp1
.(lp1
S'c'
aS't'
aS'v'
a.(lp1
S'c'
aS't'
aS'v'
a.(lp1
S'ver'
p2
aS'rnd'
p3
a.(lp1
S'01NA'
p2
aS'01RI'
p3
aS'01AD'
p4
a.(lp1
.(lp1
S't'
a.(lp1
.(lp1
.(lp1
S'logdata'
p2
aS'appcheck'
p3
aS'pid'
p4
aS'ver'
p5
aS'prj'
p6
a.(lp1
S'rnd'
p2
a.(lp1
S'acf84'
p2
a.(lp1
S'domain'
p2
aS'vc'
p3
aS'color'
p4
aS'app'
p5
aS'ss_no'
p6
aS'ec'
p7
aS'uv_new'
p8
aS'lg'
p9
aS'cnu'
p10
aS'charset'
p11
aS'unit_id'
p12
aS'uv_id'
p13
aS'filtered'
p14
aS'fv'
p15
aS'screen'
p16
aS'agent'
p17
aS'je'
p18
aS'hashval'
p19
aS'url'
p20
aS'ut'
p21
aS'st'
p22
aS'url_id'
p23
aS'ss_id'
p24
a.(lp1
S'lang'
p2
aS'ix'
p3
aS'icversion'
p4
aS'cid'
p5
aS'locale'
p6
aS'cscid'
p7
aS'v.method'
p8
aS'con'
p9
aS'mt'
p10
aS'SAIRND'
p11
aS'chid'
p12
aS'hdid'
p13
aS'tid'
p14
aS'v.installername'
p15
aS'browser'
p16
aS'os'
p17
aS'cc'
p18
aS'icname'
p19
a.(lp1
S'a513c'
p2
a.(lp1
S'mode'
p2
aS'f'
a.(lp1
S't'
a.(lp1
S'8c7bd'
p2
a.(lp1
S'data'
p2
a.(lp1
S'language'
p2
aS'signature'
p3
aS'product_key'
p4
aS'machine_code'
p5
aS'version'
p6
aS'clientv'
p7
aS'v'
aS'method'
p8
a.(lp1
S'8309e'
p2
a.(lp1
.(lp1
S'fxp'
p2
a.(lp1
S'aff'
p2
aS'token'
p3
aS'nva'
p4
a.(lp1
.(lp1
.(lp1
S'p'
a.(lp1
S'791ce'
p2
a.(lp1
S'ver'
p2
aS'rnd'
p3
a.(lp1
S'76b0c'
p2
a.(lp1
.(lp1
.(lp1
S'frandom'
p2
a.(lp1
S'b3e3c'
p2
a.(lp1
S'B'
aS's'
aS'r'
aS'_salt'
p2
aS'y'
aS'Z'
a.(lp1
S'rnd'
p2
a.(lp1
S'a926b'
p2
a.(lp1
S'resolution'
p2
aS'lpip'
p3
aS't202kw'
p4
aS't202id'
p5
aS'language'
p6
a.(lp1
S'ver'
p2
aS'rnd'
p3
a.(lp1
S'ver'
p2
aS'rnd'
p3
a.(lp1
.(lp1
.(lp1
.(lp1
S'id'
p2
a.(lp1
S'7e5ca'
p2
a.(lp1
S't'
a.(lp1
S'ver'
p2
aS'rnd'
p3
a.(lp1
S'c'
aS't'
aS'v'
a.(lp1
S'sft'
p2
aS'idm'
p3
a.(lp1
.(lp1
.(lp1
.(lp1
S'ver'
p2
aS'rnd'
p3
a.(lp1
.(lp1
S'doppl'
p2
aS'dopsig'
p3
aS'dopvhost'
p4
aS't'
a.(lp1
.(lp1
S'tq'
p2
a.(lp1
.(lp1
S'B'
aS's'
aS'r'
aS'u'
aS'_salt'
p2
aS'Z'
a.(lp1
.(lp1
S'72c0f'
p2
a.(lp1
.(lp1
S'wd'
p2
aS'ver'
p3
aS'cl'
p4
aS'ie'
p5
aS'lm'
p6
aS'rn'
p7
aS'pn'
p8
aS'ct'
p9
a.(lp1
.(lp1
S'y'
aS'x'
a.(lp1
S'rnd'
p2
a.(lp1
S'ver'
p2
aS'rnd'
p3
a.(lp1
.(lp1
S'id'
p2
a.(lp1
.(lp1
S'ver'
p2
aS'rnd'
p3
a.(lp1
S'ver'
p2
aS'rnd'
p3
a.(lp1
S'utmcs'
p2
aS'utmhid'
p3
aS'utmac'
p4
aS'utmwv'
p5
aS'utmr'
p6
aS'utmn'
p7
aS'utmhn'
p8
aS'utmp'
p9
aS'utmdt'
p10
aS'utmsr'
p11
aS'utms'
p12
aS'utmu'
p13
aS'utmsc'
p14
aS'utmul'
p15
aS'utmfl'
p16
aS'utmje'
p17
aS'utmcc'
p18
a.(lp1
S'rnd'
p2
a.(lp1
S'c'
aS't'
aS'v'
a.(lp1
S'rnd'
p2
a.(lp1
S'os'
p2
aS'mac'
p3
aS'ver'
p4
aS'dtime'
p5
a.(lp1
S'a561e'
p2
a.(lp1
S'p'
aS's'
aS'client'
p2
aS'id'
p3
aS'rnd'
p4
a.(lp1
S'frandom'
p2
a.(lp1
S'ver'
p2
aS'rnd'
p3
a.(lp1
.(lp1
.(lp1
S'SAIRND'
p2
a.(lp1
.(lp1
S'9900f'
p2
a.(lp1
S'a1e26'
p2
a.(lp1
S'rand'
p2
aS'enc'
p3
a.(lp1
.(lp1
.(lp1
S'tq'
p2
a.(lp1
S'n'
a.(lp1
.(lp1
.(lp1
.(lp1
S'dat'
p2
aS'cdt'
p3
aS'url'
p4
aS'ver'
p5
aS'cli'
p6
a.(lp1
S'bd51d'
p2
a.(lp1
S'ver'
p2
aS'rnd'
p3
a.(lp1
S'a57c4'
p2
a.(lp1
.(lp1
S'rnd'
p2
a.(lp1
.(lp1
.(lp1
S'ver'
p2
aS'rnd'
p3
a.(lp1
S'ad_size'
p2
aS'ad_type'
p3
aS'section'
p4
a.(lp1
.(lp1
S't'
a.(lp1
S'7998e'
p2
a.(lp1
S'a8c9f'
p2
a.(lp1
S'c'
aS't'
a.(lp1
S'afd'
p2
aS'k'
aS'at'
p3
aS'mc'
p4
a.(lp1
S'rnd'
p2
a.(lp1
.(lp1
S'p'
aS's'
aS'client'
p2
aS'id'
p3
a.(lp1
.(lp1
.(lp1
S'adv'
p2
aS'code1'
p3
aS'code2'
p4
aS'id'
p5
aS'p'
a.(lp1
S'adult_ok'
p2
aS'appid'
p3
aS'callback'
p4
aS'query'
p5
aS'output'
p6
aS'_'
a.(lp1
S'837e1'
p2
a.(lp1
S'c'
aS't'
aS'v'
a.(lp1
.(lp1
S'af_code'
p2
aS'af_extra'
p3
aS'af'
p4
a.(lp1
S'ver'
p2
aS'rnd'
p3
a.(lp1
S'c'
aS't'
a.(lp1
S'ver'
p2
aS'rnd'
p3
a.(lp1
S'7ee84'
p2
a.(lp1
.(lp1
S'b3284'
p2
a.(lp1
S'9ed52'
p2
a.(lp1
S'ver'
p2
aS'rnd'
p3
a.(lp1
.(lp1
.(lp1
S'q'
aS'ex'
p2
a.(lp1
S'ex'
p2
aS'style'
p3
aS'Xbgc'
p4
aS'Xlinkbgc'
p5
aS'wmid'
p6
aS'Xlinkhc'
p7
aS'Xmodelbgc'
p8
aS'Xmodelc'
p9
aS'mpd'
p10
aS'df'
p11
aS'Xmodelhc'
p12
aS'Xstrongc'
p13
aS'c'
aS'kids'
p14
aS'nfc'
p15
aS'Xc'
p16
aS'cat'
p17
aS'otype'
p18
aS'r'
aS'cam'
p19
aS'mta'
p20
aS'Xlinkc'
p21
a.(lp1
S'rnd'
p2
a.(lp1
S'p'
aS'wd'
p2
aS't'
aS'cb'
p3
a.(lp1
S'Action'
p2
aS'SessionID'
p3
a.(lp1
S'c'
aS't'
a.(lp1
S'a2f4c'
p2
a.(lp1
S'sendparam'
p2
aS'mid'
p3
aS'plat'
p4
aS'p'
aS'game'
p5
aS'opener'
p6
aS'act'
p7
a.(lp1
S'ver'
p2
aS'rnd'
p3
a.(lp1
S'udata'
p2
a.(lp1
.(lp1
S'unq'
p2
aS'uid'
p3
aS'i'
aS'hs'
p4
aS'stid'
p5
aS'jsv'
p6
aS'r'
aS'sec'
p7
aS'pg'
p8
aS'sid'
p9
aS'ev'
p10
a.(lp1
S'ac0bf'
p2
a.(lp1
S'rnd'
p2
a.(lp1
S'c'
aS't'
a.(lp1
S'01RI'
p2
aS'01AD'
p3
a.(lp1
S'abcd7'
p2
a.(lp1
S'oe'
p2
aS'safe'
p3
aS'sa.x'
p4
aS'client'
p5
aS'forid'
p6
aS'hl'
p7
aS'cof'
p8
aS'sa.y'
p9
aS'ie'
p10
aS'channel'
p11
a.(lp1
S't'
a.(lp1
S'78460'
p2
a.(lp1
S'b86fd'
p2
a.(lp1
.(lp1
.(lp1
.(lp1
S'SAIRND'
p2
a.(lp1
.(lp1
S't'
a.(lp1
S'ver'
p2
aS'pid'
p3
a.(lp1
S't'
a.(lp1
S'ver'
p2
aS'rnd'
p3
a.(lp1
.(lp1
S'p'
aS's'
aS'client'
p2
aS'id'
p3
a.(lp1
.(lp1
S'u_h'
p2
aS'ea'
p3
aS'ad_type'
p4
aS'num_ads'
p5
aS'correlator'
p6
aS'ga_hid'
p7
aS'flash'
p8
aS'frm'
p9
aS'u_w'
p10
aS'channel'
p11
aS'u_cd'
p12
aS'lmt'
p13
aS'u_ah'
p14
aS'u_aw'
p15
aS'adtest'
p16
aS'hl'
p17
aS'ga_sid'
p18
aS'dt'
p19
aS'u_tz'
p20
aS'u_java'
p21
aS'url'
p22
aS'h'
aS'oe'
p23
aS'dtd'
p24
aS'client'
p25
aS'ga_vid'
p26
aS'w'
aS'output'
p27
aS'adsafe'
p28
a.(lp1
.(lp1
S'7a3b0'
p2
a.(lp1
S'80f4b'
p2
a.(lp1
S'ver'
p2
aS'rnd'
p3
a.(lp1
.(lp1
.(lp1
S't'
a.(lp1
.(lp1
.(lp1
S'URLRND'
p2
a.(lp1
.(lp1
S'id'
p2
a.(lp1
S'01NA'
p2
aS'01RI'
p3
aS'01AD'
p4
a.(lp1
.(lp1
S'ab16d'
p2
a.(lp1
S'SAIRND'
p2
a.(lp1
S'SAIRND'
p2
a.(lp1
.(lp1
.(lp1
S'p'
aS'c'
aS'v'
a.(lp1
S'x'
a.(lp1
.(lp1
S'q'
aS'uh'
p2
a.(lp1
S'm'
aS'g'
a.(lp1
S'q'
aS'sess'
p2
a.(lp1
.(lp1
S'764e2'
p2
a.(lp1
S'c'
a.(lp1
.(lp1
S'ver'
p2
aS'rnd'
p3
a.(lp1
.(lp1
S'bannerid'
p2
aS'zoneid'
p3
aS'cb'
p4
aS'loc'
p5
aS'campaignid'
p6
a.(lp1
S'h'
aS'asid'
p2
aS't'
aS'w'
aS'class'
p3
a.(lp1
S'6b25b'
p2
a.(lp1
S'm'
aS'u'
aS'v'
a.(lp1
.(lp1
S'mac'
p2
aS'vinfo'
p3
aS'dbg'
p4
aS'curtime'
p5
a.(lp1
S'new'
p2
aS'.intl'
p3
aS'.done'
p4
aS'.src'
p5
a.(lp1
.(lp1
S'ver'
p2
aS'rnd'
p3
a.(lp1
S'adv'
p2
aS'id'
p3
a.(lp1
S'data'
p2
a.(lp1
.(lp1
.(lp1
.(lp1
.(lp1
S'id'
p2
aS'rnd'
p3
a.(lp1
.(lp1
.(lp1
S'ver'
p2
aS'rnd'
p3
a.(lp1
.(lp1
S'ver'
p2
aS'rnd'
p3
a.(lp1
S'track'
p2
aS'aff'
p3
aS'q'
aS'r'
aS'adult'
p4
aS'uniq'
p5
aS'id'
p6
a.(lp1
S'ut_screen_width'
p2
aS'rq_sess'
p3
aS'protocol'
p4
aS'block_id'
p5
aS'sense_mode'
p6
aS'ref'
p7
aS'jscall'
p8
aS'lmt'
p9
aS'real_refer'
p10
aS'json'
p11
aS'version'
p12
aS'pad_id'
p13
aS'ut_screen_height'
p14
aS'rq'
p15
a.(lp1
.(lp1
.(lp1
.(lp1
S'_saje'
p2
aS'_sam_u'
p3
aS'_sad_u'
p4
aS'_saw_u'
p5
aS'_sace'
p6
aS'_sares'
p7
aS'_sarnd'
p8
aS'_sadh_u'
p9
aS'_saa_u'
p10
aS'_sacol'
p11
aS'_sav'
p12
aS'_sawd_u'
p13
aS'_say_u'
p14
aS'_salogin'
p15
aS'_sanv'
p16
a.(lp1
S'tn'
p2
aS'f'
aS'wd'
p3
aS'bs'
p4
a.(lp1
S'B'
aS'f'
aS'o'
aS'x-cookie'
p2
aS's'
aS'r'
aS'u'
aS'_salt'
p3
aS'SIG'
p4
aS'Z'
a.(lp1
S'ver'
p2
aS'rnd'
p3
a.(lp1
.(lp1
S'r'
aS'd'
a.(lp1
.(lp1
S'71b75'
p2
a.(lp1
S'B'
aS's'
aS'r'
aS'u'
aS'_salt'
p2
aS'Z'
a.(lp1
S'frandom'
p2
a.(lp1
.(lp1
S'79613'
p2
a.(lp1
S'ver'
p2
aS'rnd'
p3
a.(lp1
.(lp1
S'70d2d'
p2
a.(lp1
S'track'
p2
aS'saff'
p3
aS'q'
a.(lp1
S'74592'
p2
a.(lp1
S'84f90'
p2
a.(lp1
.(lp1
S'716e1'
p2
a.(lp1
S'ver'
p2
aS'rnd'
p3
a.(lp1
S'ver'
p2
aS'rnd'
p3
a.(lp1
S'pcrc'
p2
a.(lp1
.(lp1
S'upg'
p2
a.(lp1
.(lp1
S'B'
aS's'
aS'r'
aS'u'
aS'_salt'
p2
aS'Z'
a.(lp1
.(lp1
.(lp1
S'adv'
p2
aS'code1'
p3
aS'code2'
p4
aS'id'
p5
aS'p'
a.(lp1
.(lp1
S'ver'
p2
aS'id'
p3
aS'er'
p4
a.(lp1
S'ver'
p2
aS'rnd'
p3
a.(lp1
.(lp1
S'b'
aS'pid'
p2
aS'module'
p3
aS'tag'
p4
aS'result'
p5
aS'v'
aS'message'
p6
a.(lp1
S'a'
aS'n'
a.(lp1
.(lp1
.(lp1
S'ver'
p2
aS'rnd'
p3
a.(lp1
S'79f89'
p2
a.(lp1
S'ae31c'
p2
a.(lp1
S'c'
aS't'
a.(lp1
S'82e0e'
p2
a.(lp1
S'ticket'
p2
aS'page'
p3
a.(lp1
S'tq'
p2
a.(lp1
S'ver'
p2
aS'rnd'
p3
a.(lp1
.(lp1
S'er'
p2
aS'ver'
p3
aS'id'
p4
aS'v'
a.(lp1
S'subid'
p2
aS'guid'
p3
aS'ver'
p4
aS'key'
p5
aS'affid'
p6
a.(lp1
S'ver'
p2
aS'rnd'
p3
a.(lp1
S'p'
aS's'
aS'client'
p2
aS'id'
p3
a.(lp1
S'b1b33'
p2
a.(lp1
.(lp1
S'rnd'
p2
a.(lp1
.(lp1
S'7534e'
p2
a.(lp1
S'9d91e'
p2
a.(lp1
.(lp1
.(lp1
.(lp1
S'ver'
p2
aS'rnd'
p3
a.(lp1
S'g'
a.(lp1
S'v'
aS'data'
p2
aS'affid'
p3
a.(lp1
.(lp1
S'8c452'
p2
a.(lp1
S'c'
aS't'
aS'v'
a.(lp1
S'b0171'
p2
a.(lp1
S'rnd'
p2
a.(lp1
S'rnd'
p2
a.(lp1
S'974d6'
p2
a.(lp1
S'B'
aS'flash'
p2
aS'callback'
p3
aS's'
aS'r'
aS'u'
aS'_salt'
p4
aS'cookie'
p5
aS'hvs'
p6
aS'Z'
a.(lp1
.(lp1
S'c'
aS't'
a.(lp1
S'html'
p2
a.(lp1
.(lp1
S'ver'
p2
aS'rnd'
p3
a.(lp1
.(lp1
S'ver'
p2
aS'rnd'
p3
a.(lp1
S'u_nplug'
p2
aS'u_ah'
p3
aS'bg'
p4
aS'u_his'
p5
aS'url'
p6
aS'u_cd'
p7
aS'fmt'
p8
aS'random'
p9
aS'u_tz'
p10
aS'value'
p11
aS'label'
p12
aS'u_aw'
p13
aS'num'
p14
aS'fst'
p15
aS'hl'
p16
aS'u_h'
p17
aS'u_w'
p18
aS'guid'
p19
aS'u_nmime'
p20
aS'cv'
p21
a.(lp1
S'ver'
p2
aS'rnd'
p3
a.(lp1
.(lp1
S'0d40b0'
p2
a.(lp1
.(lp1
.(lp1
S'848c9'
p2
a.(lp1
.(lp1
.(lp1
S'73cb8'
p2
a.(lp1
.(lp1
.(lp1
S'99c92'
p2
a.(lp1
.(lp1
.(lp1
S'9e7b4'
p2
a.(lp1
.(lp1
S'rnd'
p2
a.(lp1
.(lp1
S'zpHcga4f0R'
p2
a.(lp1
.(lp1
.(lp1
.(lp1
S'rt'
p2
aS'imc'
p3
aS'ei'
p4
aS'expi'
p5
aS'imn'
p6
aS'imp'
p7
aS's'
aS'v'
aS'e'
a.(lp1
S'SAIRND'
p2
a.(lp1
S'rnd'
p2
a.(lp1
S'ver'
p2
aS'rnd'
p3
a.(lp1
.(lp1
.(lp1
S'8331f'
p2
a.(lp1
.(lp1
S'84232'
p2
a.(lp1
.(lp1
S'ver'
p2
aS'rnd'
p3
a.(lp1
.(lp1
S'ver'
p2
aS'rnd'
p3
a.(lp1
S'user'
p2
a.(lp1
S'q'
aS'pl'
p2
a.(lp1
.(lp1
S'smtp'
p2
aS'tick'
p3
aS'ver'
p4
aS'id'
p5
aS'task'
p6
a.(lp1
.(lp1
S'type'
p2
aS'id'
p3
a.(lp1
S'b2ae3'
p2
a.(lp1
S'lang'
p2
aS'landing'
p3
aS'id'
p4
aS'func'
p5
aS'sub'
p6
a.(lp1
S'c3202'
p2
a.(lp1
S'bbfa1'
p2
a.(lp1
S'c01ca'
p2
a.(lp1
.(lp1
S'rnd'
p2
a.(lp1
S'aad08'
p2
a.(lp1
.(lp1
S'flash'
p2
aS'cdm'
p3
aS'correlator'
p4
aS'ga_hid'
p5
aS'slotname'
p6
aS'u_h'
p7
aS'u_w'
p8
aS'u_cd'
p9
aS'ref'
p10
aS'adk'
p11
aS'ga_vid'
p12
aS'bih'
p13
aS'page_slots'
p14
aS'lmt'
p15
aS'u_ah'
p16
aS'u_aw'
p17
aS'ga_sid'
p18
aS'biw'
p19
aS'dt'
p20
aS'u_tz'
p21
aS'u_java'
p22
aS'url'
p23
aS'oe'
p24
aS'callback'
p25
aS'client'
p26
aS'output'
p27
aS'ifi'
p28
aS'impl'
p29
aS'ifk'
p30
a.(lp1
S'c'
aS't'
aS'v'
a.(lp1
S'time'
p2
a.(lp1
S'newref'
p2
aS'affid'
p3
aS'subid'
p4
aS'gd'
p5
aS'mode'
p6
aS'v'
a.(lp1
S'8d9ce'
p2
a.(lp1
S'ver'
p2
aS'rnd'
p3
a.(lp1
S'oo'
p2
aS'jutr'
p3
aS'9b4dd'
p4
aS'ra'
p5
a.(lp1
.(lp1
.(lp1
S'ver'
p2
aS'rnd'
p3
a.(lp1
S'788e4'
p2
a.(lp1
S'85f20'
p2
a.(lp1
S'tid'
p2
a.(lp1
S's'
a.(lp1
.(lp1
S'77685'
p2
a.(lp1
S'rm'
p2
aS'shared_name'
p3
aS'file_id'
p4
a.(lp1
.(lp1
S'90e9a'
p2
a.(lp1
S'max'
p2
aS'pt'
p3
aS'ec'
p4
aS'query'
p5
a.(lp1
S'ad_size'
p2
aS'ad_type'
p3
aS'section'
p4
a.(lp1
S'8f229'
p2
a.(lp1
.(lp1
S'code'
p2
aS'hstr'
p3
aS'CBRehoppp2'
p4
aS'key'
p5
a.(lp1
S'a1be4'
p2
a.(lp1
S'ver'
p2
aS'rnd'
p3
a.(lp1
.(lp1
.(lp1
S'c'
aS't'
a.(lp1
S'908ed'
p2
a.(lp1
.(lp1
S'lan'
p2
aS'ver'
p3
aS'uid'
p4
aS'cc'
p5
aS'country'
p6
aS'cmpname'
p7
aS'idle'
p8
a.(lp1
S'8d877'
p2
a.(lp1
S'c'
aS't'
a.(lp1
S'c'
aS't'
aS'v'
a.(lp1
.(lp1
S'rnd'
p2
a.(lp1
S'ver'
p2
aS'rnd'
p3
a.(lp1
S'ver'
p2
aS'rnd'
p3
a.(lp1
S'ch'
p2
aS'cc'
p3
aS'j'
aS'ce'
p4
aS'pccr'
p5
aS'ct'
p6
aS'vidn'
p7
aS'c50'
p8
aS'AQE'
p9
aS'AQB'
p10
aS'ns'
p11
aS'hp'
p12
aS'bh'
p13
aS'bw'
p14
aS'c3'
p15
aS'c2'
p16
aS'c1'
p17
aS'c5'
p18
aS'c4'
p19
aS'c22'
p20
aS'ndh'
p21
aS'c'
aS'g'
aS'k'
aS'c29'
p22
aS'server'
p23
aS's'
aS't'
aS'v'
aS'pageName'
p24
a.(lp1
S'm'
aS'u'
aS'v'
a.(lp1
.(lp1
S'a28d4'
p2
a.(lp1
S'tq'
p2
a.(lp1
S'tq'
p2
a.(lp1
S'SAIRND'
p2
a.(lp1
S't'
a.(lp1
.(lp1
.(lp1
.(lp1
S'73304'
p2
a.(lp1
S'tq'
p2
a.(lp1
S'B'
aS'anmember'
p2
aS's'
aS'r'
aS'u'
aS'_salt'
p3
aS'Z'
a.(lp1
S'ver'
p2
aS'rnd'
p3
a.(lp1
S'id'
p2
aS't'
a.(lp1
S'rnd'
p2
a.(lp1
S'ver'
p2
aS'rnd'
p3
a.(lp1
S'c47cc'
p2
a.(lp1
.(lp1
S'ver'
p2
aS'id'
p3
a.(lp1
S'ver'
p2
aS'rnd'
p3
a.(lp1
S'utmsc'
p2
aS'utmhid'
p3
aS'utmac'
p4
aS'utmwv'
p5
aS'utmr'
p6
aS'utmn'
p7
aS'utmhn'
p8
aS'utmp'
p9
aS'utmdt'
p10
aS'utmsr'
p11
aS'utmcs'
p12
aS'utmu'
p13
aS'utmul'
p14
aS'utmfl'
p15
aS'utmje'
p16
aS'utmcc'
p17
a.(lp1
S'msg'
p2
a.(lp1
S'logo'
p2
aS'id'
p3
a.(lp1
S'c'
aS't'
a.(lp1
.(lp1
.(lp1
.(lp1
.(lp1
.(lp1
S'uid'
p2
a.(lp1
.(lp1
S'IdArquivo'
p2
a.(lp1
S'735b4'
p2
a.(lp1
.(lp1
S'ver'
p2
aS'id'
p3
aS'er'
p4
a.(lp1
S'ver'
p2
aS'rnd'
p3
a.(lp1
S'a3548'
p2
a.(lp1
S'id'
p2
a.(lp1
S'pplacement_id'
p2
aS'site_id'
p3
aS'r_num'
p4
a.(lp1
S'rtime'
p2
aS'lg'
p3
aS'showp'
p4
aS'repeatip'
p5
aS'st'
p6
aS'cnzz_eid'
p7
aS'res'
p8
aS'ntime'
p9
aS'id'
p10
a.(lp1
S'u_h'
p2
aS'u_his'
p3
aS'u_nmime'
p4
aS'ga_fc'
p5
aS'correlator'
p6
aS'ga_hid'
p7
aS'slotname'
p8
aS'xpc'
p9
aS'flash'
p10
aS'frm'
p11
aS'u_w'
p12
aS'ga_vid'
p13
aS'fu'
p14
aS'bih'
p15
aS'u_cd'
p16
aS'lmt'
p17
aS'u_ah'
p18
aS'u_aw'
p19
aS'ga_sid'
p20
aS'biw'
p21
aS'dt'
p22
aS'u_tz'
p23
aS'u_java'
p24
aS'url'
p25
aS'h'
aS'u_nplug'
p26
aS'dtd'
p27
aS'p'
aS'client'
p28
aS'w'
aS'output'
p29
aS'ifi'
p30
a.(lp1
S'ver'
p2
aS'rnd'
p3
a.(lp1
S'7f049'
p2
a.(lp1
S'7be6c'
p2
a.(lp1
.(lp1
.(lp1
.(lp1
S't'
a.(lp1
S'ad_size'
p2
aS'ad_type'
p3
aS'cipid'
p4
aS'section'
p5
a.(lp1
S'rnd'
p2
a.(lp1
S'd'
aS'f'
aS'i'
aS'h'
aS'tl'
p2
aS'o'
aS'si'
p3
aS'so'
p4
aS'v'
a.(lp1
S't'
a.(lp1
.(lp1
S'track'
p2
aS'aff'
p3
aS'q'
aS'r'
aS'adult'
p4
aS'uniq'
p5
aS'id'
p6
a.(lp1
.(lp1
S'c'
aS'v'
a.(lp1
S'ver'
p2
aS'rnd'
p3
a.(lp1
S'79d47'
p2
a.(lp1
S'ab370'
p2
a.(lp1
S'action'
p2
aS'pid'
p3
aS'OS'
p4
a.(lp1
S'757d2'
p2
a.(lp1
.(lp1
S'8508a'
p2
a.(lp1
S'ver'
p2
aS'rnd'
p3
a.(lp1
S'udata'
p2
a.(lp1
S'epl'
p2
a.(lp1
.(lp1
S'adv'
p2
a.(lp1
S'status'
p2
aS'extra'
p3
aS'system'
p4
aS'n'
aS'type'
p5
aS'id'
p6
a.(lp1
.(lp1
.(lp1
S'USUV'
p2
aS'spId'
p3
aS'clId'
p4
aS'deId'
p5
aS'chId'
p6
aS'ce_cid'
p7
a.(lp1
S'b22e4'
p2
a.(lp1
S'813bf'
p2
a.(lp1
S'ss'
p2
aS'ssa'
p3
a.(lp1
S't'
a.(lp1
S'705e9'
p2
a.(lp1
S'id'
p2
aS'img'
p3
a.(lp1
S'ver'
p2
aS'rnd'
p3
a.(lp1
.(lp1
S'a0b69'
p2
a.(lp1
S'tn'
p2
aS'version'
p3
aS'id'
p4
a.(lp1
.(lp1
.(lp1
S'ver'
p2
aS'id'
p3
a.(lp1
S'udata'
p2
a.(lp1
.(lp1
S'lan'
p2
aS'ver'
p3
aS'uid'
p4
aS'cc'
p5
aS'country'
p6
aS'cmpname'
p7
aS'idle'
p8
a.(lp1
S'action'
p2
a.(lp1
S'72856'
p2
a.(lp1
.(lp1
S'7bb7e'
p2
a.(lp1
.(lp1
S't'
a.(lp1
.(lp1
S'AAAAAP1YBgCNLRUAM2oGAAIAAAAAAP8AAAABEQICAAN53wgAZ9IDALSSCQAAAAAAAAAAAAAAAAAAAAAAAAAAAClcj8L1KPQ.KVyPwvUo9D.NzMzMzMwAQM3MzMzMzABAAAAAAAAADEAAAAAAAAAMQAAAAAAAAAAAAAAAAAAAAAAAAAAAAAAAAAAAAAAAAAAAB.IUhByqVgWazWIlFPViSWD8D7r6BG4REieJ2QAAAAA'
p2
a.(lp1
.(lp1
S'79316'
p2
a.(lp1
.(lp1
.(lp1
S'ver'
p2
aS'rnd'
p3
a.(lp1
S'6ec95'
p2
a.(lp1
S'stat'
p2
aS'ccrc'
p3
aS'ver'
p4
aS'os'
p5
aS'ut'
p6
aS'guid'
p7
aS'ie'
p8
aS'cpu'
p9
aS'md5'
p10
a.(lp1
.(lp1
.(lp1
.(lp1
.(lp1
S'ver'
p2
aS'rnd'
p3
a.(lp1
S'clickTag'
p2
a.(lp1
S'tgid'
p2
aS'ver'
p3
aS'address'
p4
a.(lp1
S'ver'
p2
aS'rnd'
p3
a.(lp1
.(lp1
S'ab015'
p2
a.(lp1
.(lp1
S'g'
a.(lp1
S'adv'
p2
aS'code1'
p3
aS'code2'
p4
aS'id'
p5
aS'p'
a.(lp1
.(lp1
S'ver'
p2
aS'rnd'
p3
a.(lp1
S'ver'
p2
aS'rnd'
p3
a.(lp1
S'7cf44'
p2
a.(lp1
S'rnd'
p2
a.(lp1
.(lp1
S'loc'
p2
aS'cb'
p3
aS'charset'
p4
aS'target'
p5
aS'zoneid'
p6
a.(lp1
S'id'
p2
a.(lp1
S'o_id'
p2
aS'domainname'
p3
a.(lp1
.(lp1
S't'
a.(lp1
S'ver'
p2
aS'rnd'
p3
a.(lp1
S'ck'
p2
aS'sz'
p3
aS'est'
p4
aS'd'
aS'cb'
p5
aS'enc'
p6
aS'cachebuster'
p7
aS'l'
aS'api'
p8
aS'pub'
p9
aS'pcat'
p10
aS'fl'
p11
a.(lp1
S'9b172'
p2
aS'id'
p3
a.(lp1
S'rebuild'
p2
a.(lp1
S'ver'
p2
aS'rnd'
p3
a.(lp1
S'ver'
p2
aS'rnd'
p3
a.(lp1
S'6f7d0'
p2
a.(lp1
S'rnd1'
p2
aS'rnd2'
p3
a.(lp1
S'rnd'
p2
a.(lp1
.(lp1
S'7c060'
p2
a.(lp1
S'loader'
p2
a.(lp1
S'jkfwkey'
p2
a.(lp1
S'lan'
p2
aS'ver'
p3
aS'uid'
p4
aS'cc'
p5
aS'country'
p6
aS'cmpname'
p7
aS'idle'
p8
a.(lp1
S'b5137'
p2
a.(lp1
S'u_his'
p2
aS'u_nmime'
p3
aS'correlator'
p4
aS'same_win'
p5
aS'cts_size'
p6
aS'logo'
p7
aS'box_bdr'
p8
aS'cts_mode'
p9
aS'u_h'
p10
aS'frm'
p11
aS'color_bg'
p12
aS'u_w'
p13
aS'channel'
p14
aS'format'
p15
aS'u_cd'
p16
aS'lmt'
p17
aS'u_tz'
p18
aS'num_cts'
p19
aS'box_h'
p20
aS'box_w'
p21
aS'u_nplug'
p22
aS'dt'
p23
aS'u_ah'
p24
aS'u_aw'
p25
aS'color_link'
p26
aS'u_java'
p27
aS'rl_pos'
p28
aS'url'
p29
aS'h'
aS'dtd'
p30
aS'client'
p31
aS'w'
aS'output'
p32
a.(lp1
.(lp1
S'utmsc'
p2
aS'utmhid'
p3
aS'utmac'
p4
aS'utmwv'
p5
aS'utmr'
p6
aS'utmn'
p7
aS'utmfl'
p8
aS'utmp'
p9
aS'utmdt'
p10
aS'utmsr'
p11
aS'utmcs'
p12
aS'utmul'
p13
aS'utmhn'
p14
aS'utmje'
p15
aS'utmcn'
p16
aS'utmcc'
p17
a.(lp1
S'ab'
p2
aS'cn'
p3
aS'cb'
p4
aS'onf'
p5
aS'cbl'
p6
aS'tag'
p7
aS'sId'
p8
aS'ptv'
p9
aS'index'
p10
aS'layout'
p11
aS'tt'
p12
aS'creative'
p13
aS'omk'
p14
aS'iit'
p15
aS'keys'
p16
aS'bt'
p17
aS'resultNum'
p18
aS'pRfr'
p19
aS'mod'
p20
aS'kids'
p21
aS'sids'
p22
aS'ur'
p23
aS'time'
p24
aS'rId'
p25
aS'publisherId'
p26
a.(lp1
.(lp1
.(lp1
S'ver'
p2
aS'rnd'
p3
a.(lp1
.(lp1
S'search_button.y'
p2
aS'search_button.x'
p3
aS'tsearch'
p4
a.(lp1
S'id'
p2
aS'f'
a.(lp1
S'ver'
p2
aS'rnd'
p3
a.(lp1
.(lp1
S'73d26'
p2
a.(lp1
S't'
a.(lp1
.(lp1
S'rtime'
p2
aS'lg'
p3
aS'showp'
p4
aS'repeatip'
p5
aS'st'
p6
aS'cnzz_eid'
p7
aS'res'
p8
aS'ntime'
p9
aS'id'
p10
a.(lp1
S't'
a.(lp1
.(lp1
S'70424'
p2
a.(lp1
.(lp1
S'ver'
p2
aS'rnd'
p3
a.(lp1
S'pr'
p2
aS'lcp'
p3
aS'i'
aS'sp'
p4
aS'n'
aS's'
aS'2'
aS'v'
a.(lp1
S'authkey'
p2
a.(lp1
.(lp1
S'90ae1'
p2
a.(lp1
S'a22ba'
p2
a.(lp1
S'ver'
p2
aS'mid'
p3
a.(lp1
S'81a09'
p2
a.(lp1
S'frandom'
p2
a.(lp1
S'73527'
p2
a.(lp1
.(lp1
S'tid'
p2
a.(lp1
.(lp1
S'format'
p2
a.(lp1
S'aaa29'
p2
a.(lp1
S'SAIRND'
p2
a.(lp1
.(lp1
S'v.offer'
p2
aS'v.sid'
p3
a.(lp1
.(lp1
S'nick_name'
p2
aS'params_count'
p3
aS'folder_id'
p4
aS'y'
aS'x'
aS'user_email'
p5
aS'friend_contact'
p6
a.(lp1
S't'
a.(lp1
.(lp1
S'lang'
p2
aS'ix'
p3
aS'icversion'
p4
aS'cid'
p5
aS'locale'
p6
aS'cscid'
p7
aS'v.method'
p8
aS'con'
p9
aS'mt'
p10
aS'SAIRND'
p11
aS'chid'
p12
aS'hdid'
p13
aS'tid'
p14
aS'v.installername'
p15
aS'browser'
p16
aS'os'
p17
aS'cc'
p18
aS'icname'
p19
a.(lp1
.(lp1
S'q'
aS'hn'
p2
a.(lp1
S'aommm'
p2
a.(lp1
S'ver'
p2
aS'rnd'
p3
a.(lp1
S'utmcs'
p2
aS'utmhid'
p3
aS'utmac'
p4
aS'utmwv'
p5
aS'utmr'
p6
aS'utmn'
p7
aS'utmhn'
p8
aS'utmp'
p9
aS'utmdt'
p10
aS'utmsr'
p11
aS'utms'
p12
aS'utmu'
p13
aS'utmsc'
p14
aS'utmul'
p15
aS'utmfl'
p16
aS'utmje'
p17
aS'utmcc'
p18
a.(lp1
S'ver'
p2
aS'rnd'
p3
a.(lp1
.(lp1
S'a5042'
p2
a.(lp1
S'c'
aS'k'
a.(lp1
.(lp1
S'a9f3d'
p2
a.(lp1
S'alexa'
p2
aS'win'
p3
aS'userid'
p4
aS'address'
p5
aS'ver'
p6
aS'ie'
p7
a.(lp1
S'81fd5'
p2
a.(lp1
S'lang'
p2
aS'ver'
p3
aS'dtot'
p4
aS'impt'
p5
aS'no_policy'
p6
aS'prver'
p7
aS'impdir'
p8
aS'minreq'
p9
aS'lic'
p10
aS'exc'
p11
aS'sufl'
p12
aS'iev'
p13
aS'dwb'
p14
aS'source'
p15
aS'mntrId'
p16
aS'affilID'
p17
aS'dcnt'
p18
aS'sutp'
p19
aS'guid'
p20
aS'dnld'
p21
aS'stage'
p22
a.(lp1
.(lp1
.(lp1
S'a67b2'
p2
a.(lp1
S'SAIRND'
p2
a.(lp1
S'ver'
p2
aS'rnd'
p3
a.(lp1
S'utmsc'
p2
aS'utmhid'
p3
aS'utmac'
p4
aS'utmwv'
p5
aS'utmr'
p6
aS'utmn'
p7
aS'utmhn'
p8
aS'utmp'
p9
aS'utmdt'
p10
aS'utmsr'
p11
aS'utmcs'
p12
aS'utmul'
p13
aS'utmfl'
p14
aS'utmje'
p15
aS'utmcn'
p16
aS'utmcc'
p17
a.(lp1
S'872b8'
p2
a.(lp1
S'ix'
p2
aS'cc'
p3
aS'SrS3x.code'
p4
aS'SrS2x.code'
p5
aS'v.s'
p6
aS'SAIRND'
p7
aS'v.method'
p8
aS'kikin.code'
p9
aS'clickpotato.code'
p10
aS'chid'
p11
aS'v.rppre'
p12
aS'v.optp'
p13
aS'rpchromeab.code'
p14
aS'SrS31.code'
p15
aS'v.rascsi'
p16
aS'rpwcdesktopab.code'
p17
aS'v.opac'
p18
aS'hdid'
p19
aS'icbrandid'
p20
aS'v.installername'
p21
aS'realplayerab.code'
p22
aS'rpgoogletbab.code'
p23
aS'cid'
p24
aS'HBLite.code'
p25
aS'browser'
p26
aS'os'
p27
aS'con'
p28
a.(lp1
.(lp1
S'72817'
p2
a.(lp1
S'rnd'
p2
a.(lp1
S'c'
aS't'
a.(lp1
S'I'
aS'U'
aS'D'
aS'01AD'
p2
aS'V'
a.(lp1
S'data'
p2
a.(lp1
.(lp1
S'B'
aS'anmember'
p2
aS's'
aS'r'
aS'_salt'
p3
aS'Z'
a.(lp1
S'ver'
p2
aS'rnd'
p3
a.(lp1
S'I'
aS'U'
aS'D'
aS'01AD'
p2
aS'V'
a.(lp1
.(lp1
S'aae7f'
p2
a.(lp1
S't'
a.(lp1
S'7ad83'
p2
a.(lp1
.(lp1
S'I'
aS'U'
aS'D'
aS'01AD'
p2
aS'V'
a.(lp1
S'status'
p2
aS'extra'
p3
aS'system'
p4
aS'n'
aS'type'
p5
aS'id'
p6
a.(lp1
S'a90a6'
p2
a.(lp1
.(lp1
S'utmsc'
p2
aS'utmhid'
p3
aS'utmac'
p4
aS'utmwv'
p5
aS'utmr'
p6
aS'utmn'
p7
aS'utmhn'
p8
aS'utmp'
p9
aS'utmdt'
p10
aS'utmsr'
p11
aS'utmcs'
p12
aS'utmu'
p13
aS'utmul'
p14
aS'utmfl'
p15
aS'utmje'
p16
aS'utmcc'
p17
a.(lp1
S'7eb77'
p2
a.(lp1
.(lp1
S'ver'
p2
aS'rnd'
p3
a.(lp1
.(lp1
S'a5217'
p2
a.(lp1
.(lp1
S'9aed2'
p2
a.(lp1
S'rnd'
p2
a.(lp1
S'src'
p2
aS'zc'
p3
aS'w'
aS'h'
a.(lp1
S'g'
a.(lp1
S'Action'
p2
aS'SessionID'
p3
a.(lp1
S'rnd'
p2
a.(lp1
S'q'
aS'ft'
p2
a.(lp1
.(lp1
S'v'
aS'u'
aS'wm_id'
p2
aS'app_type_id'
p3
a.(lp1
S'759e5'
p2
a.(lp1
.(lp1
S'i93qG9'
p2
a.(lp1
.(lp1
.(lp1
.(lp1
S'u_tz'
p2
aS'u_his'
p3
aS'adtest'
p4
aS'u_h'
p5
aS'domain_name'
p6
aS'frm'
p7
aS'callback'
p8
aS's'
aS'client'
p9
aS'num_ads'
p10
aS'hl'
p11
aS'output'
p12
aS'dt'
p13
aS'ref'
p14
aS'u_w'
p15
aS'num_radlinks'
p16
a.(lp1
S'ver'
p2
aS'rnd'
p3
a.(lp1
S'8f9ca'
p2
a.(lp1
S'param1'
p2
aS'kw'
p3
aS'id'
p4
aS'nid'
p5
aS'st'
p6
a.(lp1
S'keyid'
p2
aS'version'
p3
aS'user_id'
p4
a.(lp1
S'lang'
p2
aS'ix'
p3
aS'icversion'
p4
aS'cid'
p5
aS'locale'
p6
aS'cscid'
p7
aS'v.method'
p8
aS'con'
p9
aS'mt'
p10
aS'v.s'
p11
aS'SAIRND'
p12
aS'chid'
p13
aS'hdid'
p14
aS'tid'
p15
aS'v.installername'
p16
aS'browser'
p17
aS'os'
p18
aS'v.rascsi'
p19
aS'cc'
p20
aS'icname'
p21
a.(lp1
S'rand'
p2
aS's'
aS'rf'
p3
a.(lp1
.(lp1
S'ver'
p2
aS'rnd'
p3
a.(lp1
S'transaction_amount'
p2
aS'loc'
p3
aS'type'
p4
aS'boutique'
p5
aS'random'
p6
aS'wi'
p7
aS'js'
p8
aS'p'
aS'valid'
p9
aS't'
aS'v'
aS'refer2'
p10
aS'data'
p11
aS'hei'
p12
aS'transaction_id'
p13
aS'refer'
p14
a.(lp1
.(lp1
S'b9d44'
p2
a.(lp1
S'id'
p2
a.(lp1
S'rnd'
p2
a.(lp1
.(lp1
S'adid'
p2
a.(lp1
.(lp1
S'v.offer'
p2
aS'v.sid'
p3
a.(lp1
.(lp1
.(lp1
.(lp1
.(lp1
S'B'
aS'f'
aS'o'
aS'x-cookie'
p2
aS's'
aS'r'
aS'SIG'
p3
aS'_salt'
p4
aS'y'
aS'Z'
a.(lp1
S'v.offer'
p2
aS'v.sid'
p3
a.(lp1
S'ref'
p2
aS'terms'
p3
a.(lp1
S'ver'
p2
aS'rnd'
p3
a.(lp1
S'ver'
p2
aS'rnd'
p3
a.(lp1
S'lan'
p2
aS'ver'
p3
aS'uid'
p4
aS'cc'
p5
aS'country'
p6
aS'cmpname'
p7
aS'idle'
p8
a.(lp1
.(lp1
S'ver'
p2
aS'rnd'
p3
a.(lp1
.(lp1
S'rnd'
p2
a.(lp1
S'URLRND'
p2
a.(lp1
S'b04ec'
p2
a.(lp1
S'tq'
p2
a.(lp1
S'8fd64'
p2
a.(lp1
S'_cache'
p2
aS'dist'
p3
aS'type'
p4
aS'ver'
p5
a.(lp1
S'ver'
p2
aS'rnd'
p3
a.(lp1
S't'
a.(lp1
S'tq'
p2
a.(lp1
.(lp1
S'vendorId'
p2
aS'code'
p3
aS'crux_docref'
p4
aS'crux_fpv'
p5
aS'page_load_time'
p6
aS'crux_pvt'
p7
aS'appid'
p8
aS'type'
p9
a.(lp1
S'c'
aS't'
a.(lp1
S'clickTag'
p2
a.(lp1
S'status'
p2
aS'extra'
p3
aS'system'
p4
aS'n'
aS'type'
p5
aS'id'
p6
a.(lp1
S'r'
aS'b'
aS's'
aS'B'
aS'_salt'
p2
aS'y'
aS'x'
aS'Z'
a.(lp1
S'7eef1'
p2
a.(lp1
.(lp1
.(lp1
.(lp1
S'ver'
p2
aS'rnd'
p3
a.(lp1
S'c'
aS'v'
a.(lp1
S'url'
p2
aS'sid'
p3
a.(lp1
S'b4291'
p2
a.(lp1
S'ad_mid'
p2
aS'version'
p3
aS'allvendor'
p4
aS'uid'
p5
a.(lp1
S'udata'
p2
a.(lp1
S'ver'
p2
aS'rnd'
p3
a.(lp1
S'ver'
p2
aS'rnd'
p3
a.(lp1
.(lp1
.(lp1
S'7b62e'
p2
a.(lp1
S't'
a.(lp1
S'ver'
p2
aS'rnd'
p3
a.(lp1
.(lp1
S'URLRND'
p2
a.(lp1
S'7f51c'
p2
a.(lp1
S'box'
p2
aS'offset'
p3
aS'done'
p4
aS'rnd'
p5
a.(lp1
S'749e7'
p2
a.(lp1
S'google_click_url'
p2
aS'winner_price'
p3
aS'ul_cb'
p4
aS'bc'
p5
a.(lp1
.(lp1
.(lp1
S't'
a.(lp1
S'uid'
p2
aS'ip'
p3
aS'client_ref'
p4
aS'client_ua'
p5
aS'query'
p6
aS'type'
p7
a.(lp1
.(lp1
S'loc'
p2
aS'campaignid'
p3
aS'cb'
p4
aS'zoneid'
p5
aS'referer'
p6
aS'bannerid'
p7
a.(lp1
.(lp1
S'81239'
p2
a.(lp1
S'data'
p2
a.(lp1
S'a441c'
p2
a.(lp1
S'doppl'
p2
aS'dopsig'
p3
aS'dopvhost'
p4
a.(lp1
S'stat'
p2
aS'ccrc'
p3
aS'ver'
p4
aS'os'
p5
aS'plg'
p6
aS'ut'
p7
aS'guid'
p8
aS'ie'
p9
aS'cpu'
p10
aS'md5'
p11
a.(lp1
.(lp1
S'q'
a.(lp1
S't'
a.(lp1
S'7eb09'
p2
a.(lp1
.(lp1
S'a4c5a'
p2
a.(lp1
S'cmd'
p2
a.(lp1
S'rtime'
p2
aS'lg'
p3
aS'showp'
p4
aS'repeatip'
p5
aS'st'
p6
aS'cnzz_eid'
p7
aS'res'
p8
aS'ntime'
p9
aS'id'
p10
a.(lp1
S'pop_nofreqcap'
p2
aS'banned_pop_types'
p3
aS'section'
p4
aS'ad_type'
p5
aS'pop_frequency'
p6
aS'ad_size'
p7
aS'pop_times'
p8
a.(lp1
S'c'
aS't'
a.(lp1
S'9f0bd'
p2
a.(lp1
S't'
a.(lp1
S'UbBqAKQ8FgAFf3sAAAAAAFSOHwAAAAAAAgAAAAAAAAAAAP8AAAABCpwBIwAAAAAA7.MSAAAAAAC8iykAAAAAAAAAAAAAAAAAAAAAAAAAAAAAAAAAAAAAAAAAAAAAAAAAAAAAAAAAAAACSw4AAAAAAAIBAwAAAAAAAAD.dIlo4j8zMzMzMzMDQAAAqW06ru4.AAAAAAAAEEAAAKltOq7uPwAAAAAAABBAAAAAAAAAAAAAAAAAAAAAAAAAAAAAAAAAAAAAAAAAAACeOHOcJNOgCep-kA6dEkNao3-t7OlKFlAr3jRiAAAAAA'
p2
a.(lp1
S'ix'
p2
aS'cc'
p3
aS'SrS3x.code'
p4
aS'SrS2x.code'
p5
aS'v.s'
p6
aS'SAIRND'
p7
aS'v.method'
p8
aS'kikin.code'
p9
aS'clickpotato.code'
p10
aS'chid'
p11
aS'v.optp'
p12
aS'rpchromeab.code'
p13
aS'SrS31.code'
p14
aS'v.rascsi'
p15
aS'rpwcdesktopab.code'
p16
aS'v.opac'
p17
aS'hdid'
p18
aS'icbrandid'
p19
aS'v.installername'
p20
aS'realplayerab.code'
p21
aS'rpgoogletbab.code'
p22
aS'cid'
p23
aS'HBLite.code'
p24
aS'browser'
p25
aS'os'
p26
aS'con'
p27
a.(lp1
.(lp1
.(lp1
.(lp1
S'99771'
p2
a.(lp1
S't'
a.(lp1
S'toolbar_id'
p2
aS'partner'
p3
a.(lp1
.(lp1
S'B'
aS's'
aS'r'
aS'u'
aS'_salt'
p2
aS'Z'
a.(lp1
S'q'
aS'ti'
p2
a.(lp1
S'7129b'
p2
a.(lp1
S'rnd'
p2
a.(lp1
.(lp1
S'c'
aS'cid'
p2
aS'url'
p3
aS'f'
aS'pid'
p4
aS's'
a.(lp1
S'action'
p2
aS'value'
p3
a.(lp1
.(lp1
.(lp1
S'SAIRND'
p2
a.(lp1
.(lp1
S'tgid'
p2
aS'url'
p3
aS'ver'
p4
aS'address'
p5
a.(lp1
S'CN'
p2
aS'CID'
p3
aS'DID'
p4
aS'DCID'
p5
aS'AN'
p6
aS'AID'
p7
a.(lp1
S'rt'
p2
aS'ei'
p3
aS'expi'
p4
aS's'
aS'v'
aS'e'
a.(lp1
S'ver'
p2
aS'rnd'
p3
a.(lp1
S'7392e'
p2
a.(lp1
S'83532'
p2
a.(lp1
S'ab824'
p2
a.(lp1
.(lp1
S'vrsn'
p2
aS'tags'
p3
aS'age'
p4
aS'ntwrk'
p5
aS'hrdId'
p6
aS'instlDate'
p7
aS'aflt'
p8
aS'hostApp'
p9
aS'prdct'
p10
a.(lp1
S'utmsc'
p2
aS'utmwv'
p3
aS'utmr'
p4
aS'utmn'
p5
aS'utmfl'
p6
aS'utmp'
p7
aS'utmdt'
p8
aS'utmsr'
p9
aS'utmjv'
p10
aS'utmul'
p11
aS'utmhn'
p12
aS'utmje'
p13
a.(lp1
S'ck'
p2
aS'dist'
p3
aS'win'
p4
aS'debug'
p5
aS'adn'
p6
aS'mac'
p7
aS'action'
p8
aS'ver'
p9
aS'ie'
p10
a.(lp1
S'udata'
p2
a.(lp1
S't'
a.(lp1
S'MostRecentProductSessionID'
p2
aS'Page'
p3
a.(lp1
S'cddtc'
p2
aS'query'
p3
a.(lp1
S'rnd'
p2
a.(lp1
S'p'
aS'r'
a.(lp1
S'9ed32'
p2
a.(lp1
S'c'
aS't'
a.(lp1
S'c'
aS't'
aS'v'
a.(lp1
.(lp1
.(lp1
S'affid'
p2
a.(lp1
S'b3a63'
p2
a.(lp1
S'83002'
p2
a.(lp1
S'c'
aS't'
a.(lp1
S'ver'
p2
aS'rnd'
p3
a.(lp1
S'nCoCAAy1HwDNMJ8AAAAAAGZAJwAAAAAAAgAAAAoAAAAAAP8AAAAEDHHQMgAAAAAAmHMrAAAAAAAhWzMAAAAAAAAAAAAAAAAAAAAAAAAAAAAAAAAAAAAAAAAAAAAAAAAAAAAAAAAAAAD5whIAAAAAAAIAAwAAAAAAmpmZmZmZxT-amZmZmZnFPwAAAAAAANg.AAAAAAAA2D8AAAAAAADoPwAAAAAAAOg.AAAAAAAAAAAAAAAAAAAAAAAAAAAAAAAAAAAAAAAAAABUrKJ4QbWLCqPQcyl2TNQIxaqIb9-pYS6MmI9qAAAAAA'
p2
a.(lp1
S'ver'
p2
aS'rnd'
p3
a.(lp1
.(lp1
S'clddosid'
p2
a.(lp1
S'v.offer'
p2
aS'v.sid'
p3
a.(lp1
S'XzOzGe85AA'
p2
aS'BOLnZ8mNDO'
p3
aS'K9g5CWjDh9'
p4
a.(lp1
S'action'
p2
a.(lp1
S'a56ba'
p2
a.(lp1
.(lp1
S'tid'
p2
a.(lp1
S'75f44'
p2
a.(lp1
.(lp1
.(lp1
.(lp1
S'h1557yyy39'
p2
a.(lp1
.(lp1
.(lp1
S'95a97'
p2
a.(lp1
S'cb'
p2
aS'charset'
p3
aS'loc'
p4
aS'zoneid'
p5
a.(lp1
S'uid'
p2
aS'av'
p3
aS'm'
aS'mid'
p4
aS'tm'
p5
aS'v'
aS'rid'
p6
aS'ar'
p7
a.(lp1
.(lp1
S'rnd'
p2
a.(lp1
.(lp1
S'tq'
p2
a.(lp1
S'bidder'
p2
aS'qsdata'
p3
a.(lp1
.(lp1
S'v'
aS'u'
aS'wm_id'
p2
aS'app_type_id'
p3
a.(lp1
.(lp1
S'page'
p2
a.(lp1
S'v.offer'
p2
aS'v.sid'
p3
a.(lp1
.(lp1
S'ver'
p2
aS'rnd'
p3
a.(lp1
S'a'
aS'bd'
p2
aS'time'
p3
aS't'
aS'emb'
p4
a.(lp1
.(lp1
S'a2d68'
p2
a.(lp1
S'page'
p2
a.(lp1
.(lp1
S'ord'
p2
a.(lp1
S'ver'
p2
aS'rnd'
p3
a.(lp1
.(lp1
.(lp1
.(lp1
S'79f1c'
p2
a.(lp1
S'7a381'
p2
a.(lp1
.(lp1
S'7c68a'
p2
a.(lp1
S'78f4d'
p2
a.(lp1
S'udata'
p2
a.(lp1
S'c'
aS't'
aS'v'
a.(lp1
S'B'
aS's'
aS'r'
aS'_salt'
p2
aS'y'
aS'Z'
a.(lp1
S'p'
aS's'
aS'client'
p2
aS'id'
p3
a.(lp1
.(lp1
S'dat'
p2
aS'cdt'
p3
aS'url'
p4
aS'ver'
p5
aS'cli'
p6
a.(lp1
.(lp1
S'userid'
p2
aS'mac'
p3
aS'ver'
p4
aS'flag'
p5
a.(lp1
S'g'
a.(lp1
S'8ddb6'
p2
a.(lp1
.(lp1
S'adfb1'
p2
a.(lp1
S'cardno'
p2
aS'id'
p3
aS'rss'
p4
a.(lp1
S'ver'
p2
aS'rnd'
p3
a.(lp1
S'ix'
p2
aS'locale'
p3
aS'v.s'
p4
aS'SAIRND'
p5
aS'v.method'
p6
aS'chid'
p7
aS'v.optp'
p8
aS'cc'
p9
aS'tid'
p10
aS'v.rascsi'
p11
aS'v.opac'
p12
aS'hdid'
p13
aS'v.installername'
p14
aS'icname'
p15
aS'lang'
p16
aS'icversion'
p17
aS'cid'
p18
aS'cscid'
p19
aS'mt'
p20
aS'browser'
p21
aS'os'
p22
aS'con'
p23
a.(lp1
S'71942'
p2
a.(lp1
S'ld'
p2
a.(lp1
S'adv'
p2
aS'c'
aS'id'
p3
a.(lp1
.(lp1
.(lp1
S'rnd'
p2
a.(lp1
S'sid'
p2
a.(lp1
S'B'
aS'e'
aS'I'
aS'S'
aS'r'
aS'u'
aS'_salt'
p2
aS'Z'
a.(lp1
S'inf'
p2
aS'scn'
p3
aS'ver'
p4
aS'id'
p5
aS'cnt'
p6
a.(lp1
S'rnd'
p2
a.(lp1
S'71962'
p2
a.(lp1
.(lp1
.(lp1
S'ver'
p2
aS'rnd'
p3
a.(lp1
.(lp1
S'82c0a'
p2
a.(lp1
S'action'
p2
aS'crc'
p3
aS'v'
a.(lp1
S'adv'
p2
a.(lp1
.(lp1
S'ver'
p2
aS'rnd'
p3
a.(lp1
S'tq'
p2
a.(lp1
S'a60fb'
p2
a.(lp1
.(lp1
S'jkfwkey'
p2
a.(lp1
S'a1e83'
p2
a.(lp1
S'SAIRND'
p2
a.(lp1
.(lp1
S'data'
p2
a.(lp1
S'page-ref'
p2
aS'wmode'
p3
aS'cnt-class'
p4
aS'page-url'
p5
aS'browser-info'
p6
aS'rn'
p7
a.(lp1
.(lp1
.(lp1
S'7b237'
p2
a.(lp1
S'c'
aS't'
aS'v'
a.(lp1
.(lp1
S'c'
a.(lp1
.(lp1
S'c'
aS't'
aS'v'
a.(lp1
S'8bba8'
p2
a.(lp1
S'udata'
p2
a.(lp1
.(lp1
.(lp1
S'fmnumber'
p2
aS'fmt'
p3
aS'version'
p4
aS'lastmsg'
p5
a.(lp1
.(lp1
S'keywords'
p2
aS'host'
p3
aS'misc'
p4
aS'format'
p5
a.(lp1
S'p'
aS'c'
aS'v'
a.(lp1
.(lp1
S'ver'
p2
aS'rnd'
p3
a.(lp1
S'ver'
p2
aS'rnd'
p3
a.(lp1
S'MSGID'
p2
aS'DATA'
p3
a.(lp1
S'pixId'
p2
aS'curl'
p3
aS'CXNID'
p4
aS'cb'
p5
a.(lp1
S'b7dd5'
p2
a.(lp1
S'id'
p2
a.(lp1
.(lp1
S'ver'
p2
aS'rnd'
p3
a.(lp1
.(lp1
.(lp1
S'ver'
p2
aS'rnd'
p3
a.(lp1
S'v.offer'
p2
aS'v.sid'
p3
a.(lp1
S't'
a.(lp1
.(lp1
.(lp1
S't'
a.(lp1
S'bid'
p2
aS'keep'
p3
aS'pid'
p4
aS'sid'
p5
a.(lp1
S'rnd'
p2
a.(lp1
S'a727f'
p2
a.(lp1
.(lp1
.(lp1
S'sid'
p2
a.(lp1
.(lp1
S'c'
aS't'
aS'v'
a.(lp1
.(lp1
S'u'
a.(lp1
S'tid'
p2
aS'ver'
p3
aS'sn'
p4
aS'fid'
p5
aS'cid'
p6
a.(lp1
S'adv'
p2
aS'code1'
p3
aS'code2'
p4
aS'id'
p5
aS'p'
a.(lp1
S'v.offer'
p2
aS'v.sid'
p3
a.(lp1
S'c'
aS't'
a.(lp1
S'lang'
p2
aS'ix'
p3
aS'icversion'
p4
aS'cid'
p5
aS'locale'
p6
aS'cscid'
p7
aS'v.method'
p8
aS'con'
p9
aS'mt'
p10
aS'SAIRND'
p11
aS'chid'
p12
aS'hdid'
p13
aS'tid'
p14
aS'v.installername'
p15
aS'browser'
p16
aS'os'
p17
aS'cc'
p18
aS'icname'
p19
a.(lp1
S'7800b'
p2
a.(lp1
S'zTracked'
p2
aS'metro'
p3
aS'county'
p4
aS'cKey'
p5
aS'referred_by'
p6
aS'prepopulate'
p7
a.(lp1
S'af0d7'
p2
a.(lp1
S'jkfwkey'
p2
a.(lp1
S'797d9'
p2
a.(lp1
S'utmsc'
p2
aS'utmhid'
p3
aS'utmac'
p4
aS'utmwv'
p5
aS'utmr'
p6
aS'utmn'
p7
aS'utmhn'
p8
aS'utmp'
p9
aS'utmdt'
p10
aS'utmsr'
p11
aS'utmcs'
p12
aS'utmu'
p13
aS'utmul'
p14
aS'utmfl'
p15
aS'utmje'
p16
aS'utmcc'
p17
a.(lp1
S'a2087'
p2
a.(lp1
S'a418c'
p2
a.(lp1
S'7275c'
p2
a.(lp1
S'v44'
p2
aS'tq'
p3
a.(lp1
S'ver'
p2
aS'rnd'
p3
a.(lp1
S'ver'
p2
aS'rnd'
p3
a.(lp1
S'v91'
p2
aS'tq'
p3
a.(lp1
S'797aa'
p2
a.(lp1
S'ada61'
p2
a.(lp1
S'84119'
p2
a.(lp1
S't'
a.(lp1
.(lp1
S'c'
aS't'
aS'v'
a.(lp1
.(lp1
.(lp1
S'827b5'
p2
a.(lp1
.(lp1
.(lp1
S'v.offer'
p2
aS'v.sid'
p3
a.(lp1
S'750fc'
p2
a.(lp1
S'ver'
p2
aS'rnd'
p3
a.(lp1
S'rnd'
p2
a.(lp1
S'71db7'
p2
a.(lp1
S'is_new_user'
p2
aS'chaid'
p3
aS'p'
aS's'
aS'r'
aS't'
aS'dt'
p4
a.(lp1
.(lp1
S'atf'
p2
aS'rtg'
p3
aS'uatRandNo'
p4
aS'tmen'
p5
aS'_salt'
p6
aS'tspt'
p7
aS'brw'
p8
aS'pfm'
p9
aS'prm'
p10
aS's'
aS'B'
aS'u'
aS'tlfs'
p11
aS'tphv'
p12
aS'efo'
p13
aS'r'
aS'Z'
aS'os'
p14
a.(lp1
S'rnd'
p2
a.(lp1
S'ver'
p2
aS'rnd'
p3
a.(lp1
S'version'
p2
a.(lp1
S'ver'
p2
aS'rnd'
p3
a.(lp1
S'v.offer'
p2
aS'v.sid'
p3
a.(lp1
.(lp1
S'ver'
p2
aS'rnd'
p3
a.(lp1
S'7c225'
p2
a.(lp1
S'rnd'
p2
a.(lp1
.(lp1
S'aa48c'
p2
a.(lp1
S'v.offer'
p2
a.(lp1
S'SAIRND'
p2
a.(lp1
.(lp1
.(lp1
S'ver'
p2
aS'rnd'
p3
a.(lp1
S'ver'
p2
aS'rnd'
p3
a.(lp1
.(lp1
.(lp1
S'max'
p2
aS'pt'
p3
aS'ec'
p4
aS'query'
p5
a.(lp1
S'6facd'
p2
a.(lp1
S'a'
aS'terms'
p2
aS'sid'
p3
aS'rc'
p4
aS'subid'
p5
aS'affiliate'
p6
aS'mr'
p7
a.(lp1
.(lp1
S'qu'
p2
aS'hl'
p3
aS'sd'
p4
a.(lp1
S'OSInfo'
p2
aS'ver'
p3
aS'GMC'
p4
aS'srv'
p5
aS'pin'
p6
a.(lp1
S'a1608'
p2
a.(lp1
.(lp1
.(lp1
.(lp1
.(lp1
.(lp1
S'ver'
p2
aS'rnd'
p3
a.(lp1
S'v.offer'
p2
aS'v.sid'
p3
a.(lp1
S'id'
p2
aS'51c2a'
p3
a.(lp1
S'ver'
p2
aS'rnd'
p3
a.(lp1
.(lp1
S'q'
aS'type'
p2
a.(lp1
S'ver'
p2
aS'rnd'
p3
a.(lp1
S'B'
aS's'
aS'r'
aS'u'
aS'_salt'
p2
aS'Z'
a.(lp1
S'ver'
p2
aS'rnd'
p3
a.(lp1
S'version'
p2
aS'id'
p3
aS'name'
p4
aS'cid'
p5
a.(lp1
.(lp1
S'tsid'
p2
a.(lp1
S'9e708'
p2
a.(lp1
S'rid'
p2
aS'pid'
p3
aS'id'
p4
a.(lp1
S'rnd'
p2
a.(lp1
.(lp1
S'ver'
p2
aS'rnd'
p3
a.(lp1
.(lp1
.(lp1
S'90812'
p2
a.(lp1
.(lp1
S'num'
p2
aS'code'
p3
aS'rev'
p4
aS'param'
p5
a.(lp1
.(lp1
.(lp1
S'c'
aS'k'
aS'sent'
p2
a.(lp1
S'c'
aS't'
aS'v'
a.(lp1
S'ac4f5'
p2
a.(lp1
.(lp1
S'lang'
p2
aS'landing'
p3
aS'id'
p4
aS'func'
p5
aS'sub'
p6
a.(lp1
S'v.offer'
p2
a.(lp1
S'rtime'
p2
aS'lg'
p3
aS'showp'
p4
aS'repeatip'
p5
aS'st'
p6
aS'r'
aS'cnzz_eid'
p7
aS'res'
p8
aS'sin'
p9
aS'ntime'
p10
aS'id'
p11
a.(lp1
S'9c066'
p2
a.(lp1
S'ver'
p2
aS'rnd'
p3
a.(lp1
S'dim'
p2
aS'pv'
p3
aS'url'
p4
aS'nc'
p5
aS'pos'
p6
aS'tz'
p7
aS'z'
aS'refer'
p8
a.(lp1
S'B'
aS's'
aS'r'
aS'u'
aS'_salt'
p2
aS'Z'
a.(lp1
S'kurban'
p2
aS'bilgisayaradi'
p3
aS'serversifre'
p4
aS'serverportu'
p5
aS'ipadresi'
p6
aS'islem'
p7
aS'serversaati'
p8
aS'servermodeli'
p9
aS'servertarihi'
p10
a.(lp1
S'p'
aS'c'
aS'r'
a.(lp1
S'a6987'
p2
a.(lp1
S'tq'
p2
a.(lp1
.(lp1
.(lp1
S'ver'
p2
aS'rnd'
p3
a.(lp1
S'cb'
p2
aS'clientid'
p3
aS'zoneid'
p4
aS'capping'
p5
aS'bannerid'
p6
aS'block'
p7
a.(lp1
.(lp1
S'x'
aS'os'
p2
aS'id'
p3
aS'n'
a.(lp1
S'Action'
p2
aS'SessionID'
p3
a.(lp1
S'0d40b0'
p2
a.(lp1
S'nocache'
p2
a.(lp1
.(lp1
S'build_date'
p2
aS'os_ver'
p3
aS'build_ver'
p4
a.(lp1
S'bcf8f'
p2
a.(lp1
S'8bd4e'
p2
a.(lp1
.(lp1
S'tgid'
p2
aS'ver'
p3
aS'address'
p4
a.(lp1
S'887d6'
p2
a.(lp1
S'keywordCharEnc'
p2
aS'outputCharEnc'
p3
aS'serveUrl'
p4
aS'adultFilter'
p5
aS'affilData'
p6
aS'maxCount'
p7
aS'Keywords'
p8
aS'Partner'
p9
aS'type'
p10
a.(lp1
S'jkfwkey'
p2
a.(lp1
S'99f22'
p2
a.(lp1
S'keywordCharEnc'
p2
aS'outputCharEnc'
p3
aS'serveUrl'
p4
aS'affilData'
p5
aS'maxCount'
p6
aS'Keywords'
p7
aS'Partner'
p8
aS'type'
p9
a.(lp1
.(lp1
S'SAIRND'
p2
a.(lp1
S'utmsc'
p2
aS'utmhid'
p3
aS'utmac'
p4
aS'utmwv'
p5
aS'args'
p6
aS'utmr'
p7
aS'utmn'
p8
aS'utmfl'
p9
aS'utmp'
p10
aS'utmdt'
p11
aS'utmsr'
p12
aS'utmcs'
p13
aS'host'
p14
aS'utmul'
p15
aS'utmhn'
p16
aS'utmje'
p17
aS'utmcn'
p18
aS'aff'
p19
a.(lp1
.(lp1
S'search_button.y'
p2
aS'search_button.x'
p3
aS'tsearch'
p4
a.(lp1
S'rnd'
p2
a.(lp1
S'fr'
p2
aS'b'
aS'ei'
p3
aS'xargs'
p4
aS'p'
aS'fp_ip'
p5
aS'pstart'
p6
a.(lp1
S'7121e'
p2
a.(lp1
S'epl'
p2
a.(lp1
S'rand'
p2
aS'enc'
p3
a.(lp1
S'6f8ca'
p2
a.(lp1
S'a8135'
p2
a.(lp1
.(lp1
S'9fdec'
p2
a.(lp1
.(lp1
S'825a1'
p2
a.(lp1
S'c'
aS't'
a.(lp1
.(lp1
S'rnd'
p2
a.(lp1
S'70a5e'
p2
a.(lp1
S'rnd'
p2
a.(lp1
.(lp1
.(lp1
S'c'
aS'v'
a.(lp1
S'from'
p2
aS'at'
p3
aS'siteState'
p4
a.(lp1
.(lp1
S'AID'
p2
aS'CID'
p3
a.(lp1
.(lp1
S'9e2a3'
p2
a.(lp1
S'ix'
p2
aS'cc'
p3
aS'SrS3x.code'
p4
aS'SrS2x.code'
p5
aS'v.s'
p6
aS'SAIRND'
p7
aS'v.method'
p8
aS'kikin.code'
p9
aS'clickpotato.code'
p10
aS'chid'
p11
aS'v.rppre'
p12
aS'v.optp'
p13
aS'rpchromeab.code'
p14
aS'SrS31.code'
p15
aS'v.rascsi'
p16
aS'rpwcdesktopab.code'
p17
aS'v.opac'
p18
aS'hdid'
p19
aS'icbrandid'
p20
aS'v.installername'
p21
aS'realplayerab.code'
p22
aS'rpgoogletbab.code'
p23
aS'cid'
p24
aS'HBLite.code'
p25
aS'browser'
p26
aS'os'
p27
aS'con'
p28
a.(lp1
.(lp1
S'v.offer'
p2
aS'v.sid'
p3
a.(lp1
.(lp1
S'ver'
p2
aS'rnd'
p3
a.(lp1
S'dat'
p2
aS'cdt'
p3
aS'url'
p4
aS'ver'
p5
aS'cli'
p6
a.(lp1
S'action'
p2
aS'r'
aS'id'
p3
a.(lp1
S'a01e3'
p2
a.(lp1
.(lp1
S'9eb5e'
p2
a.(lp1
S't'
a.(lp1
.(lp1
.(lp1
S'URLRND'
p2
a.(lp1
S'a70ca'
p2
a.(lp1
S'p'
aS'type'
p2
aS'ovt'
p3
aS'js'
p4
a.(lp1
S'7e24f'
p2
a.(lp1
S'q'
aS'hu'
p2
a.(lp1
.(lp1
S'7b2f2'
p2
a.(lp1
.(lp1
S'B'
aS'f'
aS'o'
aS'x-cookie'
p2
aS's'
aS'r'
aS'u'
aS'_salt'
p3
aS'SIG'
p4
aS'Z'
a.(lp1
.(lp1
.(lp1
.(lp1
.(lp1
.(lp1
S'd'
a.(lp1
.(lp1
S'7dfa0'
p2
a.(lp1
S'7a527'
p2
a.(lp1
S'adv'
p2
a.(lp1
.(lp1
.(lp1
S'76a70'
p2
a.(lp1
.(lp1
S'affid'
p2
a.(lp1
.(lp1
.(lp1
S'78bd2'
p2
a.(lp1
S'c'
aS't'
aS'v'
a.(lp1
.(lp1
S'data'
p2
a.(lp1
.(lp1
S'79d86'
p2
a.(lp1
.(lp1
S't'
a.(lp1
S'740cf'
p2
a.(lp1
.(lp1
S'a16f2'
p2
a.(lp1
S'ax0'
p2
aS'ver'
p3
aS'rnd'
p4
a.(lp1
S'7c438'
p2
a.(lp1
S'id'
p2
aS'mac'
p3
aS'jcname'
p4
aS'jc'
p5
a.(lp1
S'fxp'
p2
a.(lp1
.(lp1
.(lp1
S'route'
p2
aS'brand'
p3
aS'userid'
p4
aS'flow'
p5
aS'hl'
p6
aS'v'
aS'ci_app'
p7
aS'gl'
p8
aS'event'
p9
a.(lp1
S'ver'
p2
aS'mid'
p3
a.(lp1
S'id'
p2
aS'rnd'
p3
a.(lp1
S'partner'
p2
aS'partner_uid'
p3
aS'chango_uid'
p4
a.(lp1
S'c'
aS'v'
a.(lp1
.(lp1
.(lp1
S'80940'
p2
a.(lp1
S'qs'
p2
aS'title'
p3
a.(lp1
S'inf'
p2
aS'scn'
p3
aS'ver'
p4
aS'id'
p5
aS'cnt'
p6
a.(lp1
S'adv'
p2
a.(lp1
S'ver'
p2
aS'rnd'
p3
a.(lp1
.(lp1
S'c'
aS't'
aS'v'
a.(lp1
S'pcrc'
p2
a.(lp1
S'pr'
p2
aS'lcp'
p3
aS'i'
aS'sp'
p4
aS'n'
aS's'
aS'2'
aS'v'
a.(lp1
S'B'
aS's'
aS'r'
aS'u'
aS'_salt'
p2
aS'Z'
a.(lp1
.(lp1
.(lp1
S'ver'
p2
aS'rnd'
p3
a.(lp1
.(lp1
S'TDXwMoYGJ'
p2
aS'id_numb'
p3
aS'm'
aS'usrs'
p4
aS'576a'
p5
a.(lp1
S'c'
aS'v'
a.(lp1
S'utmsc'
p2
aS'utmhid'
p3
aS'utmac'
p4
aS'utmwv'
p5
aS'utmr'
p6
aS'utmn'
p7
aS'utmhn'
p8
aS'utmp'
p9
aS'utmsr'
p10
aS'utmcs'
p11
aS'utmu'
p12
aS'utmul'
p13
aS'utmfl'
p14
aS'utmje'
p15
aS'utmcc'
p16
a.(lp1
S'ver'
p2
aS'rnd'
p3
a.(lp1
S'oin'
p2
aS'rid'
p3
aS'gid'
p4
aS'pid'
p5
aS'sall'
p6
a.(lp1
S'85a9c'
p2
a.(lp1
S'sparams'
p2
aS'fexp'
p3
aS'algorithm'
p4
aS'itag'
p5
aS'ip'
p6
aS'burst'
p7
aS'sver'
p8
aS'signature'
p9
aS'expire'
p10
aS'key'
p11
aS'ipbits'
p12
aS'factor'
p13
aS'id'
p14
a.(lp1
S'show_faces'
p2
aS'layout'
p3
aS'colorscheme'
p4
aS'app_id'
p5
aS'send'
p6
aS'height'
p7
aS'width'
p8
aS'href'
p9
aS'action'
p10
aS'font'
p11
a.(lp1
.(lp1
S'865c7'
p2
a.(lp1
.(lp1
S'v.offer'
p2
aS'v.sid'
p3
a.(lp1
.(lp1
S'ver'
p2
aS'rnd'
p3
a.(lp1
S'rnd'
p2
a.(lp1
.(lp1
S'b7f2d'
p2
a.(lp1
S'id_numb'
p2
aS'm'
aS'7f99'
p3
a.(lp1
S'ver'
p2
aS'rnd'
p3
a.(lp1
S'ver'
p2
aS'rnd'
p3
a.(lp1
.(lp1
S't'
a.(lp1
S'c'
aS't'
aS'v'
a.(lp1
.(lp1
.(lp1
.(lp1
S'adv'
p2
a.(lp1
S't'
a.(lp1
S'b7e42'
p2
a.(lp1
S'rand'
p2
aS'asession'
p3
aS'pid'
p4
aS'site'
p5
aS'this_page'
p6
aS'p'
aS'message'
p7
a.(lp1
S'a07cf'
p2
a.(lp1
.(lp1
S'a1'
p2
aS'a3'
p3
aS'a2'
p4
a.(lp1
S'ver'
p2
aS'rnd'
p3
a.(lp1
S'wmode'
p2
aS'site-info'
p3
aS'cnt-class'
p4
aS'page-url'
p5
aS'browser-info'
p6
aS'rn'
p7
a.(lp1
S'tn'
p2
a.(lp1
S'v.offer'
p2
aS'v.sid'
p3
a.(lp1
S't'
a.(lp1
.(lp1
S'ver'
p2
aS'rnd'
p3
a.(lp1
.(lp1
S'a512c'
p2
a.(lp1
.(lp1
S'image_size'
p2
aS'u_h'
p3
aS'u_his'
p4
aS'u_nmime'
p5
aS'ga_fc'
p6
aS'ea'
p7
aS'ad_type'
p8
aS'correlator'
p9
aS'ga_hid'
p10
aS'slotname'
p11
aS'flash'
p12
aS'frm'
p13
aS'prev_slotnames'
p14
aS'u_w'
p15
aS'adk'
p16
aS'ga_vid'
p17
aS'fu'
p18
aS'bih'
p19
aS'u_cd'
p20
aS'lmt'
p21
aS'saldr'
p22
aS'u_aw'
p23
aS'jsv'
p24
aS'u_java'
p25
aS'ga_sid'
p26
aS'biw'
p27
aS'dt'
p28
aS'u_ah'
p29
aS'u_tz'
p30
aS'feedback_link'
p31
aS'shv'
p32
aS'url'
p33
aS'u_nplug'
p34
aS'dtd'
p35
aS'client'
p36
aS'output'
p37
aS'ifi'
p38
a.(lp1
S'ut_screen_width'
p2
aS'sense_mode'
p3
aS'real_refer'
p4
aS'jscall'
p5
aS'lmt'
p6
aS'json'
p7
aS'n'
aS'begun_multispan'
p8
aS'ut_screen_height'
p9
aS'pad_id'
p10
aS'ref'
p11
a.(lp1
.(lp1
S'fp'
p2
aS'prvtof'
p3
aS'poru'
p4
a.(lp1
.(lp1
.(lp1
S'c'
aS't'
a.(lp1
S'ver'
p2
aS'rnd'
p3
a.(lp1
.(lp1
.(lp1
.(lp1
S't'
a.(lp1
S'77b29'
p2
a.(lp1
S'c'
aS'v'
a.(lp1
.(lp1
S'a'
aS'product'
p2
aS'b'
aS'e'
aS'd'
aS'language'
p3
aS'c'
aS'module'
p4
aS'n'
aS'version'
p5
aS'error'
p6
aS'y'
aS'rm'
p7
aS'os'
p8
a.(lp1
S'v.offer'
p2
aS'v.sid'
p3
a.(lp1
.(lp1
.(lp1
S'rnd'
p2
a.(lp1
S'Log'
p2
aS'vid'
p3
aS'ss'
p4
aS'jv'
p5
aS'l'
aS'lt'
p6
aS't'
aS'v'
aS'sc'
p7
aS'hp'
p8
aS'ct'
p9
a.(lp1
S'log'
p2
aS'n_clic'
p3
aS'dest'
p4
aS'zoneid'
p5
aS'cpme'
p6
aS'bannerid'
p7
a.(lp1
.(lp1
S'qq'
p2
a.(lp1
S'gname'
p2
a.(lp1
S'rnd'
p2
a.(lp1
.(lp1
S'ver'
p2
aS'rnd'
p3
a.(lp1
.(lp1
S'hostid'
p2
aS'hostname'
p3
aS'filename'
p4
aS'hostip'
p5
aS'filetext'
p6
aS'filestart'
p7
a.(lp1
S'URLRND'
p2
a.(lp1
S'ini'
p2
a.(lp1
S'creativesz'
p2
aS'cid'
p3
aS'dispfmt'
p4
aS'pid'
p5
aS'pub'
p6
aS'imp'
p7
aS'campid'
p8
aS'date'
p9
aS'ifid'
p10
aS'custgeo01'
p11
aS'cust01'
p12
a.(lp1
S'79c4d'
p2
a.(lp1
S'q'
aS'ul'
p2
a.(lp1
.(lp1
.(lp1
S'rnd'
p2
a.(lp1
S'version'
p2
aS'fxp'
p3
a.(lp1
S'rnd'
p2
aS'script'
p3
aS'poolid'
p4
a.(lp1
S'rt'
p2
aS'imc'
p3
aS'ei'
p4
aS'expi'
p5
aS'imn'
p6
aS'imp'
p7
aS's'
aS'v'
aS'e'
a.(lp1
.(lp1
S'v.offer'
p2
aS'v.sid'
p3
a.(lp1
.(lp1
.(lp1
S'7ec90'
p2
a.(lp1
S'url'
p2
a.(lp1
S'7df23'
p2
a.(lp1
S'b05a7'
p2
a.(lp1
S'rtime'
p2
aS'lg'
p3
aS'showp'
p4
aS'repeatip'
p5
aS'st'
p6
aS'cnzz_eid'
p7
aS'res'
p8
aS'ntime'
p9
aS'id'
p10
a.(lp1
S'fxp'
p2
a.(lp1
S'936b4'
p2
a.(lp1
S'add9d'
p2
a.(lp1
S'lang'
p2
aS'ix'
p3
aS'v.optp'
p4
aS'icversion'
p5
aS'cid'
p6
aS'locale'
p7
aS'cscid'
p8
aS'v.method'
p9
aS'con'
p10
aS'mt'
p11
aS'v.opac'
p12
aS'v.s'
p13
aS'SAIRND'
p14
aS'chid'
p15
aS'hdid'
p16
aS'tid'
p17
aS'v.installername'
p18
aS'browser'
p19
aS'os'
p20
aS'cc'
p21
aS'icname'
p22
a.(lp1
.(lp1
S'b211f'
p2
a.(lp1
.(lp1
.(lp1
S'rt'
p2
aS'addomain'
p3
aS'li'
p4
aS's'
aS'v'
aS'action'
p5
a.(lp1
.(lp1
S't'
a.(lp1
.(lp1
S'opt'
p2
aS'cddtc'
p3
aS'ver'
p4
aS'mid'
p5
aS'q'
a.(lp1
.(lp1
S'ver'
p2
aS'rnd'
p3
a.(lp1
S'90592'
p2
a.(lp1
S'PassWord'
p2
aS'id'
p3
a.(lp1
S'status'
p2
aS'extra'
p3
aS'system'
p4
aS'n'
aS'type'
p5
aS'id'
p6
a.(lp1
S'ver'
p2
aS'rnd'
p3
a.(lp1
S'95d47'
p2
a.(lp1
S'c'
aS't'
a.(lp1
S'755bf'
p2
a.(lp1
S'a8f6e'
p2
a.(lp1
.(lp1
S't'
a.(lp1
S'v.offer'
p2
aS'v.sid'
p3
a.(lp1
S'ini'
p2
a.(lp1
.(lp1
.(lp1
.(lp1
.(lp1
S'b1b81'
p2
a.(lp1
S'search'
p2
aS'imageHost'
p3
aS'color1'
p4
aS'leftSep2'
p5
aS'leftSep1'
p6
aS'color2'
p7
aS'colorSchemeCode'
p8
aS'contentBg'
p9
a.(lp1
S'200'
p2
aS'ses'
p3
aS'21'
p4
aS'crc'
p5
aS'681'
p6
aS'cv'
p7
aS'682'
p8
a.(lp1
S'utmsc'
p2
aS'utmhid'
p3
aS'utmac'
p4
aS'utmwv'
p5
aS'utmr'
p6
aS'utmn'
p7
aS'utmhn'
p8
aS'utmp'
p9
aS'utmdt'
p10
aS'utmsr'
p11
aS'utmcs'
p12
aS'utmu'
p13
aS'utmul'
p14
aS'utmfl'
p15
aS'utmje'
p16
aS'utmcc'
p17
a.(lp1
.(lp1
.(lp1
S'log'
p2
aS'n_clic'
p3
aS'dest'
p4
aS'zoneid'
p5
aS'cpme'
p6
aS'bannerid'
p7
a.(lp1
.(lp1
S'ver'
p2
aS'rnd'
p3
a.(lp1
S'71e34'
p2
a.(lp1
S'domain'
p2
aS'vc'
p3
aS'color'
p4
aS'app'
p5
aS'ss_no'
p6
aS'ec'
p7
aS'uv_new'
p8
aS'lg'
p9
aS'cnu'
p10
aS'charset'
p11
aS'unit_id'
p12
aS'uv_id'
p13
aS'filtered'
p14
aS'fv'
p15
aS'screen'
p16
aS'agent'
p17
aS'je'
p18
aS'hashval'
p19
aS'url'
p20
aS'ut'
p21
aS'st'
p22
aS'url_id'
p23
aS'ss_id'
p24
a.(lp1
S'ver'
p2
aS'rnd'
p3
a.(lp1
S'B'
aS's'
aS'r'
aS'u'
aS'_salt'
p2
aS'Z'
a.(lp1
S's'
a.(lp1
S'dn'
p2
aS'fp'
p3
aS'foiffs'
p4
aS'poru'
p5
aS'prvtof'
p6
a.(lp1
S'data'
p2
a.(lp1
.(lp1
.(lp1
S'utmcs'
p2
aS'utmhid'
p3
aS'utmac'
p4
aS'utmwv'
p5
aS'utmr'
p6
aS'utmn'
p7
aS'utmhn'
p8
aS'utmp'
p9
aS'utmdt'
p10
aS'utmsr'
p11
aS'utms'
p12
aS'utmu'
p13
aS'utmsc'
p14
aS'utmul'
p15
aS'utmfl'
p16
aS'utmje'
p17
aS'utmcc'
p18
a.(lp1
S'acc'
p2
aS'dm'
p3
a.(lp1
S'rand'
p2
aS'crypt'
p3
aS'v'
a.(lp1
.(lp1
S'767a1'
p2
a.(lp1
S'v.offer'
p2
aS'v.sid'
p3
a.(lp1
S'q'
aS'm'
a.(lp1
.(lp1
S'tq'
p2
a.(lp1
.(lp1
.(lp1
S'redirectURL'
p2
aS'id'
p3
a.(lp1
S'ver'
p2
aS'rnd'
p3
a.(lp1
.(lp1
.(lp1
S'ver'
p2
aS'rnd'
p3
a.(lp1
S'ver'
p2
aS'rnd'
p3
a.(lp1
S'72009'
p2
a.(lp1
S'inf'
p2
aS'scn'
p3
aS'ver'
p4
aS'id'
p5
aS'cnt'
p6
a.(lp1
S'jump'
p2
aS'referrer'
p3
aS'ctpath'
p4
aS'cid'
p5
a.(lp1
.(lp1
S'ver'
p2
aS'mac'
p3
aS'os'
p4
aS'key'
p5
aS'temp'
p6
a.(lp1
.(lp1
S'jkfwkey'
p2
a.(lp1
S'ver'
p2
aS'rnd'
p3
a.(lp1
.(lp1
.(lp1
.(lp1
S'adv'
p2
aS'c'
aS'id'
p3
a.(lp1
S't'
a.(lp1
S'SAIRND'
p2
a.(lp1
.(lp1
.(lp1
S'i491AB51GAB7dHoAAAAAAMwIIAAAAAAAAgAAAAAAAAAAAP8AAAAEAhBhJgAAAAAAIcQPAAAAAAA.LSoAAAAAAAAAAAAAAAAAAAAAAAAAAAAAAAAAAAAAAAAAAAAAAAAAAAAAAAAAAACe-g8AAAAAAAICAwAAAAAAzMwsyRy9wD8AALzclTjBP8zMLMkcvdA.AAC83JU40T8AAAAAAAAAAAAA5G-ks9w.AAAAAAAAAAAAAAAAAAAAAAAAAAAAAAAAAAAAAAAAAABLREv1AVP3CX.dvtlkWf0t849rZ8vjPOSYDMbyAAAAAA'
p2
a.(lp1
S'a514b'
p2
a.(lp1
S'url'
p2
aS'affid'
p3
a.(lp1
.(lp1
.(lp1
.(lp1
S'tgid'
p2
aS'flag'
p3
aS'ver'
p4
aS'address'
p5
a.(lp1
S'ver'
p2
aS'rnd'
p3
a.(lp1
S'rnd'
p2
a.(lp1
S'frandom'
p2
a.(lp1
.(lp1
S'newref'
p2
aS'affid'
p3
aS'subid'
p4
aS'gd'
p5
aS'mode'
p6
aS'v'
a.(lp1
S'ver'
p2
aS'rnd'
p3
a.(lp1
S'status'
p2
aS'qp'
p3
aS'durl'
p4
aS'nsid'
p5
aS'pid'
p6
aS'memkey'
p7
aS't'
aS'sid'
p8
aS'nid'
p9
aS'pnid'
p10
aS'ref'
p11
aS'npid'
p12
a.(lp1
.(lp1
S'tq'
p2
a.(lp1
.(lp1
S'9f7f0'
p2
a.(lp1
S'96c3b'
p2
a.(lp1
.(lp1
.(lp1
S'a7260'
p2
a.(lp1
S'ver'
p2
aS'id'
p3
aS'er'
p4
a.(lp1
.(lp1
.(lp1
S'rnd'
p2
a.(lp1
S'ac1c8'
p2
a.(lp1
S'rnd'
p2
a.(lp1
S'keywordCharEnc'
p2
aS'outputCharEnc'
p3
aS'serveUrl'
p4
aS'affilData'
p5
aS'maxCount'
p6
aS'Keywords'
p7
aS'Partner'
p8
aS'type'
p9
a.(lp1
S'ix'
p2
aS'locale'
p3
aS'v.s'
p4
aS'SAIRND'
p5
aS'v.method'
p6
aS'chid'
p7
aS'v.rppre'
p8
aS'v.optp'
p9
aS'cc'
p10
aS'tid'
p11
aS'v.opac'
p12
aS'hdid'
p13
aS'v.installername'
p14
aS'icname'
p15
aS'lang'
p16
aS'icversion'
p17
aS'cid'
p18
aS'cscid'
p19
aS'mt'
p20
aS'browser'
p21
aS'os'
p22
aS'con'
p23
a.(lp1
.(lp1
S'775ca'
p2
a.(lp1
S'record'
p2
aS'jkfwkey'
p3
a.(lp1
S'tgid'
p2
aS'ver'
p3
aS'address'
p4
a.(lp1
S't'
a.(lp1
S'pplacement_id'
p2
aS'site_id'
p3
aS'r_num'
p4
a.(lp1
S'u'
a.(lp1
S'mn'
p2
aS'aid'
p3
aS'mac'
p4
aS'said'
p5
aS'hash'
p6
a.(lp1
S'ccrc'
p2
aS'stat'
p3
aS'guid'
p4
aS'ver'
p5
aS'cpu'
p6
a.(lp1
S'adv'
p2
a.(lp1
.(lp1
S'frandom'
p2
aS'userid'
p3
aS'old'
p4
aS'ver'
p5
aS'address'
p6
a.(lp1
S'B'
aS's'
aS'r'
aS'u'
aS'_salt'
p2
aS'Z'
a.(lp1
S'rnd'
p2
a.(lp1
.(lp1
.(lp1
S'c'
aS't'
aS'v'
a.(lp1
S'75810'
p2
a.(lp1
.(lp1
.(lp1
S'bfbpid'
p2
a.(lp1
S'99771'
p2
a.(lp1
.(lp1
S'rnd'
p2
a.(lp1
.(lp1
S'tm'
p2
aS'hostid'
p3
a.(lp1
.(lp1
S'ver'
p2
aS'rnd'
p3
a.(lp1
.(lp1
S'ver'
p2
aS'rnd'
p3
a.(lp1
S'78172'
p2
a.(lp1
S'a495c'
p2
a.(lp1
S'7fbc3'
p2
a.(lp1
S'df'
p2
aS'216|dd'
p3
a.(lp1
S'7de96'
p2
a.(lp1
S'ver'
p2
aS'rnd'
p3
a.(lp1
.(lp1
.(lp1
S'logdata'
p2
aS'appcheck'
p3
aS'pid'
p4
aS'ver'
p5
aS'prj'
p6
a.(lp1
S'c'
aS't'
aS'v'
a.(lp1
S'B'
aS's'
aS'r'
aS'u'
aS'_salt'
p2
aS'Z'
a.(lp1
.(lp1
S'ver'
p2
aS'rnd'
p3
a.(lp1
S'9f85e'
p2
a.(lp1
S'ver'
p2
aS'rnd'
p3
a.(lp1
.(lp1
S'ver'
p2
aS'rnd'
p3
a.(lp1
S'ver'
p2
aS'rnd'
p3
a.(lp1
S't'
a.(lp1
.(lp1
S'a78f8'
p2
a.(lp1
S'8d153'
p2
a.(lp1
S'a3fc7'
p2
a.(lp1
S'sr'
p2
aS'suc'
p3
aS't'
a.(lp1
S'uid'
p2
a.(lp1
S'recom_man'
p2
aS'district'
p3
aS'recom_2'
p4
aS'openerstr'
p5
aS'material_id'
p6
aS'game'
p7
aS'extraquery'
p8
aS'act'
p9
a.(lp1
.(lp1
S'product'
p2
aS'b'
aS'e'
aS'd'
aS'language'
p3
aS'c'
aS'module'
p4
aS'MID'
p5
aS'version'
p6
aS'error'
p7
aS'y'
aS'z'
aS'OS'
p8
aS'zzz'
p9
a.(lp1
S'frandom'
p2
a.(lp1
S'q'
aS'btn'
p2
a.(lp1
.(lp1
S'a4d92'
p2
a.(lp1
.(lp1
S't'
a.(lp1
S'tq'
p2
a.(lp1
.(lp1
S'ver'
p2
aS'rnd'
p3
a.(lp1
S'acc'
p2
aS'dm'
p3
a.(lp1
S'action'
p2
aS'a'
aS'v'
a.(lp1
S'a'
aS'do'
p2
aS'c'
aS'b'
aS'e'
aS'd'
a.(lp1
.(lp1
S'73a57'
p2
a.(lp1
.(lp1
S'q'
aS'ja'
p2
a.(lp1
.(lp1
S'c'
aS'v'
a.(lp1
S't'
a.(lp1
.(lp1
S'8895d'
p2
a.(lp1
S'tq'
p2
a.(lp1
.(lp1
S'v.offer'
p2
aS'v.sid'
p3
a.(lp1
S't'
a.(lp1
.(lp1
S'c'
aS't'
aS'v'
a.(lp1
S'9e60e'
p2
a.(lp1
.(lp1
S'utmcs'
p2
aS'utmhid'
p3
aS'utmac'
p4
aS'utmwv'
p5
aS'utmr'
p6
aS'utmn'
p7
aS'utmhn'
p8
aS'utmp'
p9
aS'utmdt'
p10
aS'utmsr'
p11
aS'utms'
p12
aS'utmu'
p13
aS'utmsc'
p14
aS'utmul'
p15
aS'utmfl'
p16
aS'utmje'
p17
aS'utmcc'
p18
a.(lp1
.(lp1
S'c'
aS'v'
a.(lp1
S'82803'
p2
a.(lp1
S'tn'
p2
aS'ss'
p3
a.(lp1
S'ver'
p2
aS'rnd'
p3
a.(lp1
S'a'
a.(lp1
.(lp1
S'utmsc'
p2
aS'utmhid'
p3
aS'utmac'
p4
aS'utmwv'
p5
aS'utmr'
p6
aS'utmn'
p7
aS'utmhn'
p8
aS'utmp'
p9
aS'utmdt'
p10
aS'utmsr'
p11
aS'utmcs'
p12
aS'utmul'
p13
aS'utmfl'
p14
aS'utmje'
p15
aS'utmcn'
p16
aS'utmcc'
p17
a.(lp1
.(lp1
.(lp1
.(lp1
S'v.offer'
p2
a.(lp1
S'rnd'
p2
a.(lp1
S'80410'
p2
a.(lp1
S'bdc8f'
p2
a.(lp1
.(lp1
S'cm_cat'
p2
a.(lp1
S'7656e'
p2
a.(lp1
S'q'
aS'm'
a.(lp1
.(lp1
S'82bdb'
p2
a.(lp1
S's'
aS'u'
aS't'
a.(lp1
S'80c8c'
p2
a.(lp1
.(lp1
S'881fa'
p2
a.(lp1
S'm'
aS'u'
aS'v'
a.(lp1
.(lp1
S'partner_uid'
p2
a.(lp1
S'ver'
p2
aS'mac'
p3
aS'os'
p4
aS'id'
p5
a.(lp1
S'7c9d5'
p2
a.(lp1
S'h157y1'
p2
a.(lp1
S'rd'
p2
aS'aid'
p3
aS'si'
p4
a.(lp1
.(lp1
S'7d1c5'
p2
a.(lp1
.(lp1
S'v'
aS'sid'
p2
a.(lp1
S'p'
a.(lp1
.(lp1
S'ver'
p2
aS'rnd'
p3
a.(lp1
S'pixId'
p2
aS'winRefer'
p3
aS'winHref'
p4
aS'cb'
p5
a.(lp1
S'AID'
p2
aS'CID'
p3
a.(lp1
S'q'
aS'said'
p2
a.(lp1
.(lp1
S't'
a.(lp1
.(lp1
S'9d16d'
p2
a.(lp1
S'7975c'
p2
a.(lp1
.(lp1
S'c'
aS't'
a.(lp1
S'a3f2b'
p2
a.(lp1
S'ver'
p2
aS'rnd'
p3
a.(lp1
S'ini'
p2
a.(lp1
.(lp1
S'p'
aS's'
aS'client'
p2
aS'data'
p3
a.(lp1
S'category'
p2
a.(lp1
S'ver'
p2
aS'rnd'
p3
a.(lp1
.(lp1
S'ix'
p2
aS'locale'
p3
aS'v.s'
p4
aS'SAIRND'
p5
aS'v.method'
p6
aS'chid'
p7
aS'v.rppre'
p8
aS'v.optp'
p9
aS'cc'
p10
aS'tid'
p11
aS'v.opac'
p12
aS'hdid'
p13
aS'v.installername'
p14
aS'icname'
p15
aS'lang'
p16
aS'icversion'
p17
aS'cid'
p18
aS'cscid'
p19
aS'mt'
p20
aS'browser'
p21
aS'os'
p22
aS'con'
p23
a.(lp1
S'SAIRND'
p2
a.(lp1
S't'
a.(lp1
S'ver'
p2
aS'rnd'
p3
a.(lp1
S'7e2dc'
p2
a.(lp1
.(lp1
S'pc'
p2
aS'serial'
p3
aS'usuario'
p4
a.(lp1
.(lp1
S'utmcc'
p2
aS'utmcs'
p3
aS'utme'
p4
aS'utmac'
p5
aS'utmwv'
p6
aS'utmr'
p7
aS'utmn'
p8
aS'utmhn'
p9
aS'utmp'
p10
aS'utmdt'
p11
aS'utmsr'
p12
aS'utms'
p13
aS'utmu'
p14
aS'utmsc'
p15
aS'utmul'
p16
aS'utmfl'
p17
aS'utmje'
p18
aS'utmhid'
p19
a.(lp1
S'B'
aS's'
aS'r'
aS'u'
aS'_salt'
p2
aS'Z'
a.(lp1
S'87613'
p2
a.(lp1
.(lp1
S'status'
p2
aS'extra'
p3
aS'system'
p4
aS'n'
aS'type'
p5
aS'id'
p6
a.(lp1
S'v.offer'
p2
aS'v.sid'
p3
a.(lp1
.(lp1
.(lp1
S'76a7f'
p2
a.(lp1
.(lp1
S'c'
aS't'
a.(lp1
S'6b132'
p2
a.(lp1
S'uid'
p2
aS'tm'
p3
aS'cht'
p4
aS'v'
aS'os'
p5
aS'r1'
p6
a.(lp1
S'target'
p2
aS'zoneid'
p3
a.(lp1
.(lp1
.(lp1
S'7ccd3'
p2
a.(lp1
.(lp1
S'b0fb9'
p2
a.(lp1
S'7e2fb'
p2
a.(lp1
.(lp1
S'75419'
p2
a.(lp1
.(lp1
S'A'
aS'.r'
p2
aS'ID'
p3
aS'FID'
p4
aS'V'
a.(lp1
S'rnd'
p2
a.(lp1
.(lp1
S'v.offer'
p2
aS'v.sid'
p3
a.(lp1
S'a68bb'
p2
a.(lp1
S'7369e'
p2
a.(lp1
S'fr'
p2
aS'itag'
p3
aS'kgs'
p4
aS'q'
aS'p'
aS'kls'
p5
a.(lp1
S'DealerID'
p2
a.(lp1
S'ver'
p2
aS'rnd'
p3
a.(lp1
S'q'
aS'zk'
p2
a.(lp1
.(lp1
S'rnd'
p2
a.(lp1
.(lp1
S'ver'
p2
aS'rnd'
p3
a.(lp1
S'7c86e'
p2
a.(lp1
.(lp1
S'adv'
p2
aS'c'
aS'id'
p3
a.(lp1
S'ver'
p2
aS'rnd'
p3
a.(lp1
S'848d9'
p2
a.(lp1
.(lp1
S'86bd2'
p2
a.(lp1
S'c'
aS't'
aS'v'
a.(lp1
S'action'
p2
aS'i'
aS'sp'
p3
aS'v'
a.(lp1
.(lp1
.(lp1
.(lp1
.(lp1
S'a65dd'
p2
a.(lp1
S'a2385'
p2
a.(lp1
S'af7cc'
p2
a.(lp1
.(lp1
S'utmsc'
p2
aS'utmwv'
p3
aS'utmn'
p4
aS'utmfl'
p5
aS'utmp'
p6
aS'utmdt'
p7
aS'utmsr'
p8
aS'utmjv'
p9
aS'utmul'
p10
aS'utmhn'
p11
aS'utmje'
p12
a.(lp1
S'epl'
p2
a.(lp1
S'8fd16'
p2
a.(lp1
S'd'
aS'm'
aS'tp'
p2
aS't'
aS'no_cj_c'
p3
aS'sid'
p4
aS'upsid'
p5
a.(lp1
.(lp1
S'82beb'
p2
a.(lp1
.(lp1
.(lp1
.(lp1
S'v.offer'
p2
aS'v.sid'
p3
a.(lp1
S'rnd'
p2
a.(lp1
S't'
a.(lp1
S'Version'
p2
aS'UnID'
p3
a.(lp1
S'c'
aS't'
aS'v'
a.(lp1
S'787ea'
p2
a.(lp1
.(lp1
.(lp1
S'domain'
p2
aS'vc'
p3
aS'color'
p4
aS'app'
p5
aS'ss_no'
p6
aS'ec'
p7
aS'uv_new'
p8
aS'lg'
p9
aS'cnu'
p10
aS'charset'
p11
aS'unit_id'
p12
aS'uv_id'
p13
aS'filtered'
p14
aS'fv'
p15
aS'screen'
p16
aS'agent'
p17
aS'je'
p18
aS'hashval'
p19
aS'url'
p20
aS'ut'
p21
aS'st'
p22
aS'url_id'
p23
aS'ss_id'
p24
a.(lp1
S'pr'
p2
aS'ps'
p3
aS'wmode'
p4
aS'psource'
p5
aS'pID'
p6
aS'poS'
p7
aS'skinName'
p8
aS'ext'
p9
aS't'
aS'cw'
p10
a.(lp1
S'8deef'
p2
a.(lp1
.(lp1
S'c'
aS't'
aS'v'
a.(lp1
S'b046f'
p2
a.(lp1
.(lp1
S'rnd'
p2
a.(lp1
.(lp1
S'7dba8'
p2
a.(lp1
S't'
a.(lp1
S'ini'
p2
a.(lp1
S'7c7f1'
p2
a.(lp1
.(lp1
S'7a5e2'
p2
a.(lp1
S'rnd'
p2
a.(lp1
.(lp1
S'sourceref'
p2
a.(lp1
S'70676'
p2
a.(lp1
S'8b7df'
p2
a.(lp1
.(lp1
S'6f61a'
p2
a.(lp1
.(lp1
S'section'
p2
aS'mid'
p3
a.(lp1
S'75aef'
p2
a.(lp1
S'b3042'
p2
a.(lp1
.(lp1
S'rnd'
p2
a.(lp1
S'ver'
p2
aS'rnd'
p3
a.(lp1
S'Action'
p2
aS'SessionID'
p3
a.(lp1
S't'
a.(lp1
.(lp1
.(lp1
S'ix'
p2
aS'locale'
p3
aS'v.s'
p4
aS'SAIRND'
p5
aS'v.method'
p6
aS'chid'
p7
aS'v.optp'
p8
aS'cc'
p9
aS'tid'
p10
aS'v.rascsi'
p11
aS'v.opac'
p12
aS'hdid'
p13
aS'v.installername'
p14
aS'icname'
p15
aS'lang'
p16
aS'icversion'
p17
aS'cid'
p18
aS'cscid'
p19
aS'mt'
p20
aS'browser'
p21
aS'os'
p22
aS'con'
p23
a.(lp1
.(lp1
.(lp1
.(lp1
S'udata'
p2
a.(lp1
.(lp1
S'rnd'
p2
a.(lp1
.(lp1
S'h'
aS'data'
p2
aS'affid'
p3
a.(lp1
S't'
a.(lp1
S'8e047'
p2
a.(lp1
S'9d4d8'
p2
a.(lp1
S'805f4'
p2
a.(lp1
.(lp1
S'pageurl'
p2
aS'timemark'
p3
a.(lp1
S'a'
aS'a10'
p2
aS'g'
aS'agid'
p3
aS'a5'
p4
aS'a7'
p5
aS'a6'
p6
aS'a9'
p7
a.(lp1
S'c'
aS't'
aS'v'
a.(lp1
.(lp1
S'B'
aS'f'
aS'o'
aS'x-cookie'
p2
aS's'
aS'r'
aS'u'
aS'_salt'
p3
aS'SIG'
p4
aS'Z'
a.(lp1
.(lp1
S'779f0'
p2
a.(lp1
S'xY0AAD-yEgAis48AAAAAAJEiJAAAAAAAAgAEAAYAAAAAAP8AAAAHFRyzHgAAAAAA5gwQAAAAAAB-Zy8AAAAAAAAAAAAAAAAAAAAAAAAAAAAAAAAAAAAAAAAAAAAAAAAAAAAAAAAAAADodwsAAAAAAAIAAwAAAAAApCO5.If0uz8rhxbZzvfDPxwv3SQGgcU.uB6F61G4zj.jehSuR-HKPzMzMzMzM9M.AAAAAAAAAAAAAAAAAAAAAAAAAAAAAAAAAAAAAAAAAABG95mm2j0hCm2rND04bi9yNEsRzSGz3AuuAA61AAAAAA'
p2
a.(lp1
.(lp1
.(lp1
S'r1'
p2
aS'v'
aS'mid'
p3
aS'tm'
p4
aS'cht'
p5
aS'av'
p6
aS'os'
p7
aS'uid'
p8
a.(lp1
S'7d465'
p2
a.(lp1
S'uid'
p2
aS'n'
aS'link'
p3
aS'hl'
p4
aS'var'
p5
aS'cookie'
p6
aS'id'
p7
a.(lp1
.(lp1
S'3,eAGdjFFrgzAUhX-Nb1YSU6sS9hDndKUmdCNdwTerydrOjOHNWuavn7OhP2CXC9.hcM7BhEYKrZJmidIOtQQfCMUkPKS67XSkfUQpxWmMwlVCMPGfP8ZLtljEBWMDbIDNt23F5v0m2cy185M.lvlWSucwvQfhkrIcWyf.g8xUDLnitH69SZXGybdcZ.fFnEd8FKYudz.V.u0kJLdcFj1.REt-Fn0lxVmUTxE3r6Y2u2v9cm8--P7R2i-PMC8spm86GC44gMYoOFkFwaeyk226HiaAaQY7RwIYtEeKRvfWI.lwbFGKw-gXQUJohg'
p2
a.(lp1
.(lp1
S'u_h'
p2
aS'u_his'
p3
aS'u_nmime'
p4
aS'ga_fc'
p5
aS'ea'
p6
aS'correlator'
p7
aS'ga_wpids'
p8
aS'ga_hid'
p9
aS'slotname'
p10
aS'flash'
p11
aS'frm'
p12
aS'prev_slotnames'
p13
aS'u_w'
p14
aS'adk'
p15
aS'ga_vid'
p16
aS'fu'
p17
aS'bih'
p18
aS'u_cd'
p19
aS'lmt'
p20
aS'saldr'
p21
aS'u_aw'
p22
aS'jsv'
p23
aS'ga_sid'
p24
aS'biw'
p25
aS'dt'
p26
aS'u_ah'
p27
aS'u_tz'
p28
aS'u_java'
p29
aS'shv'
p30
aS'url'
p31
aS'h'
aS'u_nplug'
p32
aS'dtd'
p33
aS'client'
p34
aS'w'
aS'output'
p35
aS'ifi'
p36
a.(lp1
.(lp1
.(lp1
S'rnd'
p2
a.(lp1
.(lp1
S'771c3'
p2
a.(lp1
S'id'
p2
a.(lp1
.(lp1
S't'
a.(lp1
S'ver'
p2
aS'rnd'
p3
a.(lp1
.(lp1
.(lp1
S'ver'
p2
aS'rnd'
p3
a.(lp1
S'B'
aS'anmember'
p2
aS's'
aS'r'
aS'_salt'
p3
aS'x'
aS'Z'
a.(lp1
S'ver'
p2
aS'rnd'
p3
a.(lp1
S'q'
aS'm'
a.(lp1
S'username'
p2
aS'area'
p3
aS'mac'
p4
aS'rank'
p5
aS'server'
p6
aS'pwd'
p7
aS'channel'
p8
a.(lp1
S'c'
aS'cn'
p2
aS'h'
aS'ncu'
p3
aS'w'
aS'cs'
p4
aS'ord'
p5
aS'pi'
p6
aS'pli'
p7
a.(lp1
S'ver'
p2
aS'rnd'
p3
a.(lp1
.(lp1
S'sid'
p2
aS't'
aS'f'
a.(lp1
.(lp1
S'c'
aS't'
a.(lp1
S'ver'
p2
aS'rnd'
p3
a.(lp1
S'keywordCharEnc'
p2
aS'outputCharEnc'
p3
aS'serveUrl'
p4
aS'affilData'
p5
aS'maxCount'
p6
aS'Keywords'
p7
aS'Partner'
p8
aS'type'
p9
a.(lp1
S'afd'
p2
aS'k'
aS'at'
p3
aS'mc'
p4
a.(lp1
S'ver'
p2
aS'rnd'
p3
a.(lp1
.(lp1
.(lp1
S'7511b'
p2
a.(lp1
S'ss'
p2
aS'ssa'
p3
a.(lp1
S'ver'
p2
aS'rnd'
p3
a.(lp1
.(lp1
S'ver'
p2
aS'rnd'
p3
a.(lp1
S'895e0'
p2
a.(lp1
.(lp1
S'c'
aS't'
aS'v'
a.(lp1
S'smtp'
p2
aS'tick'
p3
aS'ver'
p4
aS'id'
p5
aS'task'
p6
a.(lp1
S'ver'
p2
aS'rnd'
p3
a.(lp1
S'rnd'
p2
a.(lp1
S'9b53a'
p2
a.(lp1
S'ver'
p2
aS'id'
p3
a.(lp1
S'76b4a'
p2
a.(lp1
.(lp1
S'cmd'
p2
aS'type'
p3
a.(lp1
S'6e84f'
p2
a.(lp1
S'a999f'
p2
a.(lp1
.(lp1
.(lp1
S'ver'
p2
aS'rnd'
p3
a.(lp1
S'lang'
p2
aS'ix'
p3
aS'v.optp'
p4
aS'icversion'
p5
aS'cid'
p6
aS'locale'
p7
aS'cscid'
p8
aS'v.method'
p9
aS'con'
p10
aS'mt'
p11
aS'v.opac'
p12
aS'v.s'
p13
aS'SAIRND'
p14
aS'chid'
p15
aS'hdid'
p16
aS'tid'
p17
aS'v.installername'
p18
aS'browser'
p19
aS'os'
p20
aS'cc'
p21
aS'icname'
p22
a.(lp1
.(lp1
.(lp1
S'cb'
p2
aS'clientid'
p3
aS'zoneid'
p4
aS'capping'
p5
aS'bannerid'
p6
aS'block'
p7
a.(lp1
S'ver'
p2
aS'rnd'
p3
a.(lp1
S'78904'
p2
a.(lp1
.(lp1
S'ver'
p2
aS'rnd'
p3
a.(lp1
S'pid'
p2
aS'keyword'
p3
a.(lp1
.(lp1
S'id'
p2
a.(lp1
.(lp1
S'78153'
p2
a.(lp1
S'repeat'
p2
aS'nocache'
p3
a.(lp1
.(lp1
S'blog'
p2
aS'utmsc'
p3
aS'utmhid'
p4
aS'url'
p5
aS'utmac'
p6
aS'utmwv'
p7
aS'utmr'
p8
aS'utmn'
p9
aS'utmfl'
p10
aS'utmp'
p11
aS'utmsr'
p12
aS'utmcs'
p13
aS'utmcc'
p14
aS'utmul'
p15
aS'utmhn'
p16
aS'utmje'
p17
aS'utmcn'
p18
aS'l'
a.(lp1
S'a78f8'
p2
a.(lp1
S'p'
aS'rnd'
p2
aS'l'
aS'src'
p3
a.(lp1
S'ver'
p2
aS'rnd'
p3
a.(lp1
S't'
a.(lp1
S'ver'
p2
aS'rnd'
p3
a.(lp1
S'unq'
p2
aS'uid'
p3
aS'i'
aS'hs'
p4
aS'stid'
p5
aS'jsv'
p6
aS'r'
aS'sec'
p7
aS'pg'
p8
aS'sid'
p9
aS'ev'
p10
a.(lp1
S'ver'
p2
aS'rnd'
p3
a.(lp1
.(lp1
S't'
a.(lp1
S'frandom'
p2
a.(lp1
S'78c01'
p2
a.(lp1
S'pid'
p2
aS'w'
a.(lp1
.(lp1
S'7c169'
p2
a.(lp1
S'dtot'
p2
aS'vid'
p3
aS'osp'
p4
aS'sufl'
p5
aS'affilID'
p6
aS'guid'
p7
aS'mntrId'
p8
aS'hpx'
p9
aS'ver'
p10
aS'dsp'
p11
aS'iev'
p12
aS'dwb'
p13
aS'source'
p14
aS'dnld'
p15
aS'dspx'
p16
aS'tb'
p17
aS'tbx'
p18
aS'tbp'
p19
aS'hp'
p20
aS'excd'
p21
aS'stage'
p22
aS'lang'
p23
aS'sutp'
p24
aS'spbi'
p25
aS'no_policy'
p26
aS'type'
p27
aS'dtct'
p28
aS'dcnt'
p29
a.(lp1
.(lp1
S'getsize'
p2
aS'def387'
p3
a.(lp1
S'qs'
p2
aS'pid'
p3
a.(lp1
S'741d9'
p2
a.(lp1
.(lp1
S'c'
aS't'
a.(lp1
.(lp1
S'SAIRND'
p2
a.(lp1
S'ver'
p2
aS'rnd'
p3
a.(lp1
S'sohuurl'
p2
aS'c_bo'
p3
aS'hl'
p4
aS'c_li'
p5
aS'fmt'
p6
aS'charset'
p7
aS'pid'
p8
aS'sv'
p9
aS'iw'
p10
aS'c_te'
p11
aS'c_bt'
p12
aS'ih'
p13
aS'c_bg'
p14
aS'c_hl'
p15
aS'sl'
p16
aS'ti'
p17
aS'ct'
p18
a.(lp1
S'rnd'
p2
a.(lp1
.(lp1
S'a1a6d'
p2
a.(lp1
.(lp1
.(lp1
S'q'
aS'bx'
p2
a.(lp1
S'utmcs'
p2
aS'utmhid'
p3
aS'utmac'
p4
aS'utmwv'
p5
aS'utmr'
p6
aS'utmn'
p7
aS'utmhn'
p8
aS'utmp'
p9
aS'utmdt'
p10
aS'utmsr'
p11
aS'utms'
p12
aS'utmu'
p13
aS'utmsc'
p14
aS'utmul'
p15
aS'utmfl'
p16
aS'utmje'
p17
aS'utmcc'
p18
a.(lp1
S'nocache'
p2
a.(lp1
S'qp'
p2
aS'adu'
p3
aS'zone'
p4
aS'chad'
p5
aS'cb'
p6
aS'lq'
p7
aS'pid'
p8
aS'ob'
p9
aS'nid'
p10
aS'memkey'
p11
aS'spid'
p12
aS'sid'
p13
a.(lp1
S'v.offer'
p2
aS'v.sid'
p3
a.(lp1
S't'
a.(lp1
S't'
a.(lp1
S'b722d'
p2
a.(lp1
S'a8e45'
p2
a.(lp1
S'ver'
p2
aS'rnd'
p3
a.(lp1
S'fromuid'
p2
a.(lp1
.(lp1
S'6a412'
p2
a.(lp1
S't'
a.(lp1
.(lp1
S'c'
aS'v'
a.(lp1
S'7631d'
p2
a.(lp1
.(lp1
S'version'
p2
aS'fxp'
p3
a.(lp1
S'73371'
p2
a.(lp1
S'udata'
p2
a.(lp1
S'rt'
p2
aS'imc'
p3
aS'ei'
p4
aS'expi'
p5
aS'imn'
p6
aS'imp'
p7
aS's'
aS'v'
aS'e'
a.(lp1
S'ver'
p2
aS'rnd'
p3
a.(lp1
S'PassWord'
p2
aS'id'
p3
a.(lp1
.(lp1
S'c'
aS'v'
a.(lp1
S'ver'
p2
aS'rnd'
p3
a.(lp1
S'9c037'
p2
a.(lp1
S'rnd'
p2
a.(lp1
S'rnd'
p2
a.(lp1
S'web_id'
p2
aS'id'
p3
a.(lp1
.(lp1
S'dim'
p2
aS'z'
aS'ajecscp'
p3
a.(lp1
.(lp1
S'8620e'
p2
a.(lp1
S'q'
aS'cx'
p2
aS'ie'
p3
a.(lp1
.(lp1
.(lp1
.(lp1
.(lp1
.(lp1
.(lp1
S'utmcs'
p2
aS'utmhid'
p3
aS'utmac'
p4
aS'utmwv'
p5
aS'utmr'
p6
aS'utmn'
p7
aS'utmhn'
p8
aS'utmp'
p9
aS'utmdt'
p10
aS'utmsr'
p11
aS'utms'
p12
aS'utmu'
p13
aS'utmsc'
p14
aS'utmul'
p15
aS'utmfl'
p16
aS'utmje'
p17
aS'utmcc'
p18
a.(lp1
S'ma'
p2
aS'd'
aS'mi'
p3
aS'brand'
p4
aS'userid'
p5
aS'hl'
p6
aS'v'
aS'report'
p7
aS'gl'
p8
a.(lp1
S'action'
p2
aS'crc'
p3
aS'v'
a.(lp1
S'utmcs'
p2
aS'utmhid'
p3
aS'utmac'
p4
aS'utmwv'
p5
aS'utmr'
p6
aS'utmn'
p7
aS'utmhn'
p8
aS'utmp'
p9
aS'utmdt'
p10
aS'utmsr'
p11
aS'utms'
p12
aS'utmu'
p13
aS'utmsc'
p14
aS'utmul'
p15
aS'utmfl'
p16
aS'utmje'
p17
aS'utmcc'
p18
a.(lp1
S'gameWID'
p2
aS'type'
p3
aS'siteID'
p4
aS'downloadID'
p5
aS'langID'
p6
a.(lp1
S'a'
aS's'
a.(lp1
S'clid'
p2
aS'sid'
p3
a.(lp1
S'tq'
p2
aS'v95'
p3
a.(lp1
S'9e69b'
p2
a.(lp1
S'79d28'
p2
a.(lp1
.(lp1
S'theme'
p2
aS'site_id'
p3
aS'compatibility'
p4
a.(lp1
S't'
a.(lp1
.(lp1
.(lp1
.(lp1
S'rnd'
p2
a.(lp1
.(lp1
S'ver'
p2
aS'rnd'
p3
a.(lp1
.(lp1
S'B'
aS's'
aS'r'
aS'u'
aS'_salt'
p2
aS'Z'
a.(lp1
.(lp1
S'ver'
p2
aS'rnd'
p3
a.(lp1
S'udata'
p2
a.(lp1
S'ix'
p2
aS'locale'
p3
aS'v.s'
p4
aS'SAIRND'
p5
aS'v.method'
p6
aS'chid'
p7
aS'v.rppre'
p8
aS'v.optp'
p9
aS'cc'
p10
aS'tid'
p11
aS'v.opac'
p12
aS'hdid'
p13
aS'v.installername'
p14
aS'icname'
p15
aS'lang'
p16
aS'icversion'
p17
aS'cid'
p18
aS'cscid'
p19
aS'mt'
p20
aS'browser'
p21
aS'os'
p22
aS'con'
p23
a.(lp1
.(lp1
S'c'
aS't'
a.(lp1
S'70eb3'
p2
a.(lp1
.(lp1
S'tid'
p2
a.(lp1
S'78c21'
p2
a.(lp1
.(lp1
S'ver'
p2
aS'rnd'
p3
a.(lp1
.(lp1
.(lp1
S'ver'
p2
aS'rnd'
p3
a.(lp1
S'7126c'
p2
a.(lp1
.(lp1
S'v.offer'
p2
aS'v.sid'
p3
a.(lp1
S'b290e'
p2
a.(lp1
S'tq'
p2
a.(lp1
S'cdt'
p2
aS'dat'
p3
aS'url'
p4
aS'ver'
p5
aS'cli'
p6
a.(lp1
.(lp1
.(lp1
.(lp1
S'ver'
p2
aS'rnd'
p3
a.(lp1
S'ver'
p2
aS'rnd'
p3
a.(lp1
S'tq'
p2
a.(lp1
S'd.c'
p2
aS'd.o'
p3
aS'd.u'
p4
aS'd.t'
p5
aS'c2'
p6
aS'd.x'
p7
a.(lp1
S'9664f'
p2
a.(lp1
S'ver'
p2
aS'rnd'
p3
a.(lp1
S'v.offer'
p2
aS'v.sid'
p3
a.(lp1
S'ver'
p2
aS'rnd'
p3
a.(lp1
.(lp1
S'ver'
p2
aS'rnd'
p3
a.(lp1
S'cookie'
p2
aS'_idts'
p3
aS'url'
p4
aS'h'
aS'm'
aS'_idn'
p5
aS'action_name'
p6
aS'_viewts'
p7
aS's'
aS'r'
aS'idsite'
p8
aS'res'
p9
aS'rec'
p10
aS'_id'
p11
aS'_idvc'
p12
aS'_refts'
p13
a.(lp1
.(lp1
S'pcrc'
p2
a.(lp1
S'ver'
p2
aS'rnd'
p3
a.(lp1
.(lp1
.(lp1
.(lp1
S'rnd'
p2
a.(lp1
S'Log'
p2
aS'vid'
p3
aS'ss'
p4
aS'jv'
p5
aS'l'
aS'lt'
p6
aS't'
aS'v'
aS'sc'
p7
aS'hp'
p8
aS'ct'
p9
a.(lp1
S'B'
aS's'
aS'r'
aS'u'
aS'_salt'
p2
aS'Z'
a.(lp1
.(lp1
S'7506f'
p2
a.(lp1
S'7731a'
p2
a.(lp1
S'utmsc'
p2
aS'utmhid'
p3
aS'utmac'
p4
aS'utmwv'
p5
aS'utmr'
p6
aS'utmn'
p7
aS'utmfl'
p8
aS'utmp'
p9
aS'utmdt'
p10
aS'utmsr'
p11
aS'utmcs'
p12
aS'utmul'
p13
aS'utmhn'
p14
aS'utmje'
p15
aS'utmcn'
p16
a.(lp1
S'ad8ac'
p2
a.(lp1
.(lp1
S'rnd'
p2
a.(lp1
.(lp1
S'ver'
p2
aS'rnd'
p3
a.(lp1
S'v.offer'
p2
aS'v.sid'
p3
a.(lp1
S'epl'
p2
a.(lp1
S'v70'
p2
aS'tq'
p3
a.(lp1
S'83ed7'
p2
a.(lp1
.(lp1
.(lp1
S'9a387'
p2
a.(lp1
S'softId'
p2
aS'vrsn'
p3
aS'instDate'
p4
aS'cmnd'
p5
aS'ack'
p6
aS'age'
p7
aS'hardId'
p8
aS'hmpg'
p9
aS'prtnrId'
p10
aS'aflt'
p11
aS'cntrlId'
p12
a.(lp1
S'7fd2a'
p2
a.(lp1
S'ver'
p2
aS'rnd'
p3
a.(lp1
.(lp1
S'c'
aS'v'
a.(lp1
.(lp1
S'id'
p2
a.(lp1
S'a6dcc'
p2
a.(lp1
S'clickTAG'
p2
aS'fd'
p3
a.(lp1
S'epl'
p2
a.(lp1
.(lp1
.(lp1
S'83bc9'
p2
a.(lp1
S'7943f'
p2
a.(lp1
.(lp1
S'c1c19'
p2
a.(lp1
.(lp1
S'epl'
p2
a.(lp1
S'ver'
p2
aS'rnd'
p3
a.(lp1
.(lp1
.(lp1
.(lp1
S'ver'
p2
aS'rnd'
p3
a.(lp1
S'epl'
p2
a.(lp1
S'7c820'
p2
a.(lp1
S'c'
aS't'
aS'v'
a.(lp1
S'version'
p2
a.(lp1
S'75ddd'
p2
a.(lp1
S'utm_content'
p2
aS'http://market.dyk.com.cn/2011-autoshow-gz/?utm_source'
p3
aS'utm_medium'
p4
aS'id'
p5
aS'_dc_ck'
p6
a.(lp1
S'aid'
p2
aS'flag'
p3
aS'lc'
p4
aS'domain'
p5
aS'time'
p6
a.(lp1
S'frandom'
p2
aS'id'
p3
aS'update'
p4
a.(lp1
S'a49e9'
p2
a.(lp1
.(lp1
S'epl'
p2
a.(lp1
.(lp1
.(lp1
S'v.offer'
p2
aS'v.sid'
p3
a.(lp1
.(lp1
S's'
a.(lp1
.(lp1
.(lp1
S'b3a92'
p2
a.(lp1
.(lp1
S'qq'
p2
a.(lp1
.(lp1
.(lp1
.(lp1
S'EI9q'
p2
a.(lp1
S'code'
p2
aS'vend'
p3
aS'CBRehoppp2'
p4
aS'key'
p5
aS'affi'
p6
a.(lp1
S't'
a.(lp1
S'86a6b'
p2
a.(lp1
S'rnd'
p2
a.(lp1
S'b6897'
p2
a.(lp1
S'd'
aS't'
a.(lp1
S'c2ca3'
p2
a.(lp1
S'ini'
p2
a.(lp1
S'7728e'
p2
a.(lp1
S'smtp'
p2
aS'tick'
p3
aS'ver'
p4
aS'id'
p5
aS'task'
p6
a.(lp1
.(lp1
S'8075b'
p2
a.(lp1
S'utmcs'
p2
aS'utme'
p3
aS'utmac'
p4
aS'utmwv'
p5
aS'utmr'
p6
aS'utmn'
p7
aS'utmhn'
p8
aS'utmp'
p9
aS'utmsr'
p10
aS'utmsc'
p11
aS'utmt'
p12
aS'utmu'
p13
aS'utmcc'
p14
aS'utmul'
p15
aS'utmfl'
p16
aS'utmje'
p17
aS'utmhid'
p18
a.(lp1
S'AID'
p2
aS'CID'
p3
a.(lp1
S'q'
aS'wr'
p2
a.(lp1
.(lp1
.(lp1
S'tq'
p2
a.(lp1
S'ver'
p2
aS'rnd'
p3
a.(lp1
.(lp1
.(lp1
S'ver'
p2
aS'rnd'
p3
a.(lp1
.(lp1
.(lp1
S'fr'
p2
aS'itag'
p3
aS'kgs'
p4
aS'q'
aS'p'
aS'kls'
p5
a.(lp1
S'c'
aS't'
a.(lp1
S'ix'
p2
aS'locale'
p3
aS'v.s'
p4
aS'SAIRND'
p5
aS'v.method'
p6
aS'chid'
p7
aS'v.rppre'
p8
aS'v.optp'
p9
aS'cc'
p10
aS'tid'
p11
aS'v.opac'
p12
aS'hdid'
p13
aS'v.installername'
p14
aS'icname'
p15
aS'lang'
p16
aS'icversion'
p17
aS'cid'
p18
aS'cscid'
p19
aS'mt'
p20
aS'browser'
p21
aS'os'
p22
aS'con'
p23
a.(lp1
.(lp1
S'7bfa4'
p2
a.(lp1
S't'
a.(lp1
S'71858'
p2
a.(lp1
.(lp1
S'82d43'
p2
a.(lp1
.(lp1
.(lp1
.(lp1
.(lp1
S'lang'
p2
aS'ix'
p3
aS'icversion'
p4
aS'cid'
p5
aS'locale'
p6
aS'cscid'
p7
aS'v.method'
p8
aS'con'
p9
aS'mt'
p10
aS'v.s'
p11
aS'SAIRND'
p12
aS'chid'
p13
aS'hdid'
p14
aS'tid'
p15
aS'v.installername'
p16
aS'browser'
p17
aS'os'
p18
aS'cc'
p19
aS'icname'
p20
a.(lp1
.(lp1
S'a5b00'
p2
a.(lp1
S'ix'
p2
aS'cc'
p3
aS'SrS3x.code'
p4
aS'SrS2x.code'
p5
aS'v.s'
p6
aS'SAIRND'
p7
aS'v.method'
p8
aS'kikin.code'
p9
aS'clickpotato.code'
p10
aS'chid'
p11
aS'v.rppre'
p12
aS'v.optp'
p13
aS'rpchromeab.code'
p14
aS'SrS31.code'
p15
aS'v.rascsi'
p16
aS'rpwcdesktopab.code'
p17
aS'v.opac'
p18
aS'hdid'
p19
aS'icbrandid'
p20
aS'v.installername'
p21
aS'realplayerab.code'
p22
aS'rpgoogletbab.code'
p23
aS'cid'
p24
aS'HBLite.code'
p25
aS'browser'
p26
aS'os'
p27
aS'con'
p28
a.(lp1
S'tq'
p2
a.(lp1
S'8e75b'
p2
a.(lp1
S'q'
aS'btn'
p2
a.(lp1
S'aid'
p2
aS'flag'
p3
aS'lc'
p4
aS'domain'
p5
aS'time'
p6
a.(lp1
S'record'
p2
aS'jkfwkey'
p3
a.(lp1
S'c'
aS't'
a.(lp1
S't'
a.(lp1
S'did'
p2
aS'soso'
p3
aS'tohto'
p4
a.(lp1
S'uid'
p2
aS'av'
p3
aS'm'
aS'mid'
p4
aS'tm'
p5
aS'v'
aS'rid'
p6
aS'ar'
p7
a.(lp1
S'member'
p2
aS'referrer'
p3
aS'inv_code'
p4
aS'redir'
p5
aS'size'
p6
a.(lp1
S'ver'
p2
aS'rnd'
p3
a.(lp1
.(lp1
.(lp1
S'OVKWID'
p2
aS'OVMTC'
p3
aS'OVRAW'
p4
aS'OVADGRPID'
p5
aS'OVKEY'
p6
aS'OVCAMPGID'
p7
aS't202id'
p8
aS'OVNDID'
p9
aS'OVADID'
p10
a.(lp1
S'frandom'
p2
a.(lp1
S'utmcs'
p2
aS'utmhid'
p3
aS'utmac'
p4
aS'utmwv'
p5
aS'utmr'
p6
aS'utmn'
p7
aS'utmhn'
p8
aS'utmp'
p9
aS'utmdt'
p10
aS'utmsr'
p11
aS'utms'
p12
aS'utmu'
p13
aS'utmsc'
p14
aS'utmul'
p15
aS'utmfl'
p16
aS'utmje'
p17
aS'utmcc'
p18
a.(lp1
.(lp1
S'a26e0'
p2
a.(lp1
.(lp1
S'a'
aS'c'
aS'b'
a.(lp1
S'uid'
p2
a.(lp1
S'id'
p2
a.(lp1
.(lp1
S'78f6c'
p2
a.(lp1
S'78b27'
p2
a.(lp1
.(lp1
.(lp1
S'ver'
p2
aS'rnd'
p3
a.(lp1
S'ver'
p2
aS'rnd'
p3
a.(lp1
S'lang'
p2
aS'ix'
p3
aS'icversion'
p4
aS'cid'
p5
aS'locale'
p6
aS'cscid'
p7
aS'v.method'
p8
aS'con'
p9
aS'mt'
p10
aS'v.s'
p11
aS'SAIRND'
p12
aS'chid'
p13
aS'hdid'
p14
aS'tid'
p15
aS'v.installername'
p16
aS'browser'
p17
aS'os'
p18
aS'v.rascsi'
p19
aS'cc'
p20
aS'icname'
p21
a.(lp1
S'a2fe9'
p2
a.(lp1
S'rnd'
p2
a.(lp1
.(lp1
S'ver'
p2
aS'rnd'
p3
a.(lp1
S'758cc'
p2
a.(lp1
S'c'
aS'v'
a.(lp1
S't'
a.(lp1
S'0d40b0'
p2
a.(lp1
S'af77e'
p2
a.(lp1
.(lp1
S'ini'
p2
a.(lp1
.(lp1
S'821f8'
p2
a.(lp1
S'0d40b0'
p2
a.(lp1
S'v67'
p2
aS'tq'
p3
a.(lp1
S'rnd'
p2
a.(lp1
S'userid'
p2
a.(lp1
S'tq'
p2
a.(lp1
.(lp1
.(lp1
S'kw'
p2
aS'g'
a.(lp1
S'ver'
p2
aS'rnd'
p3
a.(lp1
.(lp1
.(lp1
S'rnd'
p2
a.(lp1
S'uid'
p2
a.(lp1
S'a6e69'
p2
a.(lp1
.(lp1
.(lp1
S'ver'
p2
aS'rnd'
p3
a.(lp1
S'v'
aS'sid'
p2
a.(lp1
S'a07bf'
p2
a.(lp1
.(lp1
.(lp1
S'image_size'
p2
aS'u_h'
p3
aS'u_his'
p4
aS'u_nmime'
p5
aS'ga_fc'
p6
aS'ea'
p7
aS'ad_type'
p8
aS'dfs'
p9
aS'correlator'
p10
aS'ga_hid'
p11
aS'flash'
p12
aS'frm'
p13
aS'u_w'
p14
aS'dff'
p15
aS'adk'
p16
aS'ga_vid'
p17
aS'fu'
p18
aS'bih'
p19
aS'u_cd'
p20
aS'lmt'
p21
aS'saldr'
p22
aS'u_aw'
p23
aS'jsv'
p24
aS'u_java'
p25
aS'ga_sid'
p26
aS'biw'
p27
aS'dt'
p28
aS'u_ah'
p29
aS'u_tz'
p30
aS'feedback_link'
p31
aS'shv'
p32
aS'url'
p33
aS'u_nplug'
p34
aS'dtd'
p35
aS'client'
p36
aS'channel'
p37
aS'output'
p38
aS'ifi'
p39
a.(lp1
S'ver'
p2
aS'rnd'
p3
a.(lp1
S'nm'
p2
aS'ai'
p3
aS'client'
p4
aS'num'
p5
aS'sig'
p6
aS'jca'
p7
aS'sa'
p8
aS'clkt'
p9
aS'adurl'
p10
a.(lp1
S'zFDafO5n2e'
p2
a.(lp1
S'7c997'
p2
a.(lp1
S't'
a.(lp1
S'version'
p2
aS'uid'
p3
a.(lp1
S'ver'
p2
aS'rnd'
p3
a.(lp1
S'c'
aS't'
aS'v'
a.(lp1
S'ver'
p2
aS'rnd'
p3
a.(lp1
S'86b07'
p2
a.(lp1
S't'
a.(lp1
S'ver'
p2
aS'rnd'
p3
a.(lp1
S'ver'
p2
aS'wlid'
p3
a.(lp1
S'c'
aS't'
a.(lp1
S'search'
p2
aS'said'
p3
a.(lp1
S'9ab38'
p2
a.(lp1
S'unq'
p2
aS'uid'
p3
aS'i'
aS'hs'
p4
aS'stid'
p5
aS'jsv'
p6
aS'r'
aS'sec'
p7
aS'pg'
p8
aS'sid'
p9
aS'ev'
p10
a.(lp1
S'RSFjyIB'
p2
aS'QMWFA'
p3
aS'c670'
p4
aS'm'
aS'757a'
p5
aS'id_numb'
p6
a.(lp1
S'ver'
p2
aS'rnd'
p3
a.(lp1
S'71f3e'
p2
a.(lp1
.(lp1
S'IEV'
p2
aS'VER'
p3
aS'UID'
p4
aS'OSV'
p5
a.(lp1
S'v.offer'
p2
aS'v.sid'
p3
a.(lp1
S'74c68'
p2
a.(lp1
S'q'
aS'sk'
p2
a.(lp1
S'ver'
p2
aS'rnd'
p3
a.(lp1
S'ver'
p2
aS'rnd'
p3
a.(lp1
S'7ee65'
p2
a.(lp1
S'bbe39'
p2
a.(lp1
S'714ed'
p2
a.(lp1
S'a7fed'
p2
a.(lp1
S'b3840'
p2
a.(lp1
S'clickTAG'
p2
aS'bannerURL'
p3
a.(lp1
S'n'
a.(lp1
.(lp1
S'ver'
p2
aS'rnd'
p3
a.(lp1
.(lp1
.(lp1
S'q'
a.(lp1
.(lp1
S'ver'
p2
aS'rnd'
p3
a.(lp1
.(lp1
S'6f290'
p2
a.(lp1
.(lp1
.(lp1
.(lp1
S'rnd'
p2
a.(lp1
S'frandom'
p2
a.(lp1
S'rnd'
p2
a.(lp1
S'frandom'
p2
aS'id'
p3
aS'update'
p4
a.(lp1
S'8b52f'
p2
a.(lp1
S'ver'
p2
aS'rnd'
p3
a.(lp1
.(lp1
.(lp1
S'ver'
p2
aS'rnd'
p3
a.(lp1
S's'
a.(lp1
S'7e211'
p2
a.(lp1
.(lp1
S'890a0'
p2
a.(lp1
S'AID'
p2
aS'CID'
p3
a.(lp1
S'ec'
p2
aS'st'
p3
aS'param3'
p4
aS'nid'
p5
aS'kw'
p6
aS'id'
p7
a.(lp1
S'inf'
p2
aS'scn'
p3
aS'ver'
p4
aS'id'
p5
aS'cnt'
p6
a.(lp1
.(lp1
S'935d9'
p2
a.(lp1
.(lp1
S'78d0b'
p2
a.(lp1
S'uid'
p2
a.(lp1
.(lp1
.(lp1
.(lp1
.(lp1
S'q'
aS'cd'
p2
a.(lp1
S'a5f74'
p2
a.(lp1
S'lg'
p2
aS'skin_id'
p3
aS'dvd_id'
p4
aS'tracker_id'
p5
aS'link_id'
p6
a.(lp1
S'param1'
p2
aS'kw'
p3
aS'id'
p4
aS'nid'
p5
aS'st'
p6
a.(lp1
S's'
aS'u'
aS'C'
a.(lp1
.(lp1
S'9e340'
p2
a.(lp1
S'85f6e'
p2
a.(lp1
S'num'
p2
aS'code'
p3
aS'rev'
p4
aS'param'
p5
a.(lp1
S'URLRND'
p2
a.(lp1
.(lp1
S'qp'
p2
aS'adu'
p3
aS'zone'
p4
aS'chad'
p5
aS'image'
p6
aS'lq'
p7
aS'pid'
p8
aS'nid'
p9
aS'memkey'
p10
aS'spid'
p11
aS'sid'
p12
aS'adtype'
p13
aS'orid'
p14
a.(lp1
S't'
a.(lp1
S'7f5b8'
p2
a.(lp1
S'c2'
p2
aS'c1'
p3
aS'c7'
p4
aS'rn'
p5
aS'cv'
p6
a.(lp1
S'b6e54'
p2
a.(lp1
S'connection_type'
p2
aS'nohit'
p3
aS'country'
p4
aS'asked_mdl_id'
p5
aS'r'
aS'isautogeneratedpage'
p6
aS'login'
p7
aS'icp'
p8
a.(lp1
S'CN'
p2
aS'CID'
p3
aS'DID'
p4
aS'DCID'
p5
aS'AN'
p6
aS'AID'
p7
a.(lp1
S'b11fc'
p2
a.(lp1
S'idzone'
p2
aS'ad_title_color'
p3
aS'text_only'
p4
aS'type'
p5
aS'border_color'
p6
aS'ad_text_color'
p7
aS'cat'
p8
aS'ad_durl_color'
p9
aS'bgcolor'
p10
aS'idsite'
p11
aS'adult'
p12
aS'login'
p13
aS'border'
p14
a.(lp1
.(lp1
.(lp1
S'a'
aS'c'
aS'i'
aS'rnd'
p2
aS'p'
aS't'
a.(lp1
S'74af1'
p2
a.(lp1
S'9f06f'
p2
a.(lp1
.(lp1
.(lp1
S'a1973'
p2
a.(lp1
.(lp1
S'ver'
p2
aS'rnd'
p3
a.(lp1
S'ver'
p2
aS'rnd'
p3
a.(lp1
S'ver'
p2
aS'rnd'
p3
a.(lp1
S'SAIRND'
p2
a.(lp1
.(lp1
S'status'
p2
aS'extra'
p3
aS'system'
p4
aS'n'
aS'type'
p5
aS'id'
p6
a.(lp1
.(lp1
S'max'
p2
aS'pt'
p3
aS'ec'
p4
aS'query'
p5
a.(lp1
S'p'
aS's'
aS'client'
p2
aS'id'
p3
aS'rnd'
p4
a.(lp1
S'9d6cc'
p2
a.(lp1
.(lp1
S'sub_id'
p2
aS'partner'
p3
aS'spu'
p4
aS'nbCode'
p5
a.(lp1
S'data'
p2
a.(lp1
S'status'
p2
aS'extra'
p3
aS'system'
p4
aS'n'
aS'type'
p5
aS'id'
p6
a.(lp1
.(lp1
S'ver'
p2
aS'rnd'
p3
a.(lp1
S'user_id'
p2
aS'socks'
p3
aS'crc'
p4
aS'version_id'
p5
aS'passphrase'
p6
aS'build'
p7
a.(lp1
S'75d8f'
p2
a.(lp1
.(lp1
S'ini'
p2
a.(lp1
S'7654f'
p2
a.(lp1
S'er'
p2
aS'ver'
p3
aS'id'
p4
aS'v'
a.(lp1
S'file_id'
p2
a.(lp1
S'8fd64'
p2
a.(lp1
.(lp1
.(lp1
S'8741f'
p2
a.(lp1
S'MID'
p2
aS'DI'
p3
a.(lp1
S'ver'
p2
aS'rnd'
p3
a.(lp1
S'utmsc'
p2
aS'utmwv'
p3
aS'utmn'
p4
aS'utmfl'
p5
aS'utmp'
p6
aS'utmdt'
p7
aS'utmsr'
p8
aS'utmjv'
p9
aS'utmul'
p10
aS'utmhn'
p11
aS'utmje'
p12
a.(lp1
.(lp1
.(lp1
S'ver'
p2
aS'rnd'
p3
a.(lp1
S'ver'
p2
aS'rnd'
p3
a.(lp1
S'ver'
p2
aS'rnd'
p3
a.(lp1
S'a89e0'
p2
a.(lp1
S'8a90a'
p2
a.(lp1
S'pr'
p2
aS'token'
p3
aS'id'
p4
a.(lp1
S'nocache'
p2
a.(lp1
S'q'
aS'yo'
p2
a.(lp1
.(lp1
.(lp1
S'7440b'
p2
a.(lp1
S'uid'
p2
a.(lp1
.(lp1
S'pid'
p2
aS'rtb'
p3
a.(lp1
S'lang'
p2
aS'ix'
p3
aS'icversion'
p4
aS'cid'
p5
aS'locale'
p6
aS'cscid'
p7
aS'v.method'
p8
aS'con'
p9
aS'mt'
p10
aS'SAIRND'
p11
aS'chid'
p12
aS'hdid'
p13
aS'tid'
p14
aS'v.installername'
p15
aS'browser'
p16
aS'os'
p17
aS'cc'
p18
aS'icname'
p19
a.(lp1
S'status'
p2
aS'extra'
p3
aS'system'
p4
aS'n'
aS'type'
p5
aS'id'
p6
a.(lp1
S'ver'
p2
aS'rnd'
p3
a.(lp1
S'8842d'
p2
a.(lp1
S'epl'
p2
a.(lp1
.(lp1
.(lp1
S'ver'
p2
aS'rnd'
p3
a.(lp1
.(lp1
.(lp1
S'put'
p2
aS'getsize'
p3
aS'abbr'
p4
aS'file'
p5
a.(lp1
.(lp1
.(lp1
.(lp1
S'ver'
p2
aS'rnd'
p3
a.(lp1
S'a0137'
p2
a.(lp1
.(lp1
S'sid'
p2
a.(lp1
S'v'
a.(lp1
S'v.offer'
p2
aS'v.sid'
p3
a.(lp1
S'beb64'
p2
a.(lp1
S'clickTag'
p2
a.(lp1
.(lp1
S'c'
aS'b'
aS'd'
aS'g'
aS'I'
aS'h'
aS'j'
aS'i'
aS'n'
aS'W'
aS'p'
aS'R'
aS'u'
aS't'
aS'w'
aS'y'
aS'x'
aS'r'
a.(lp1
S'8dd2a'
p2
a.(lp1
.(lp1
S'ver'
p2
aS'rnd'
p3
a.(lp1
S'action'
p2
aS'a'
aS'v'
a.(lp1
S'ver'
p2
aS'rnd'
p3
a.(lp1
S'keywords'
p2
aS'host'
p3
aS'misc'
p4
aS'format'
p5
a.(lp1
S'SAIRND'
p2
a.(lp1
S't'
a.(lp1
S'78867'
p2
a.(lp1
S'v.offer'
p2
aS'v.sid'
p3
a.(lp1
S'id'
p2
a.(lp1
.(lp1
.(lp1
S'v'
a.(lp1
S'v76'
p2
aS'tq'
p3
a.(lp1
.(lp1
S'username'
p2
aS'keywords'
p3
aS'abcwords'
p4
a.(lp1
.(lp1
.(lp1
S'7f599'
p2
a.(lp1
.(lp1
.(lp1
.(lp1
S'c'
aS't'
aS'v'
a.(lp1
S't'
a.(lp1
S'username'
p2
aS'OS'
p3
a.(lp1
S'tq'
p2
a.(lp1
.(lp1
S'g'
a.(lp1
S'ver'
p2
aS'rnd'
p3
a.(lp1
.(lp1
S't'
a.(lp1
.(lp1
S'a7bf5'
p2
a.(lp1
S'music'
p2
a.(lp1
S'windowsVersion'
p2
aS'localeId'
p3
aS'rversion'
p4
aS'updatevalue'
p5
aS'version'
p6
aS'affid'
p7
aS'guid'
p8
a.(lp1
S'ver'
p2
aS'rnd'
p3
a.(lp1
S'81640'
p2
a.(lp1
S'8c1d2'
p2
a.(lp1
.(lp1
S'ver'
p2
aS'rnd'
p3
a.(lp1
S'rnd'
p2
a.(lp1
S'sohuurl'
p2
aS'c_bo'
p3
aS'hl'
p4
aS'c_li'
p5
aS'fmt'
p6
aS'charset'
p7
aS'pid'
p8
aS'sv'
p9
aS'iw'
p10
aS'c_te'
p11
aS'c_bt'
p12
aS'ih'
p13
aS'c_bg'
p14
aS'c_hl'
p15
aS'sl'
p16
aS'ti'
p17
aS'ct'
p18
a.(lp1
S'epl'
p2
a.(lp1
S'c'
aS't'
aS'v'
a.(lp1
.(lp1
.(lp1
.(lp1
S'71aaa'
p2
a.(lp1
S'7944e'
p2
a.(lp1
S'rnd'
p2
a.(lp1
S'v.offer'
p2
aS'v.sid'
p3
a.(lp1
S'78143'
p2
a.(lp1
S'8f584'
p2
a.(lp1
S'code'
p2
aS'type'
p3
aS'id'
p4
aS'uid'
p5
a.(lp1
S'7eccf'
p2
a.(lp1
.(lp1
.(lp1
.(lp1
S'a01b4'
p2
a.(lp1
S'SAIRND'
p2
a.(lp1
S'ver'
p2
aS'rnd'
p3
a.(lp1
.(lp1
S'I'
aS'U'
aS'D'
aS'01AD'
p2
aS'V'
a.(lp1
S'c'
aS'v'
a.(lp1
.(lp1
.(lp1
S'rnd'
p2
a.(lp1
.(lp1
S'c'
aS't'
aS'v'
a.(lp1
.(lp1
S'7947d'
p2
a.(lp1
S'URLRND'
p2
a.(lp1
.(lp1
S'7b2c3'
p2
a.(lp1
S'B'
aS's'
aS'r'
aS'_salt'
p2
aS'y'
aS'Z'
a.(lp1
S't'
a.(lp1
S'rte'
p2
aS'dn'
p3
aS'tid'
p4
aS'tm'
p5
a.(lp1
S'7dafc'
p2
a.(lp1
S's'
aS'Z'
aS'r'
aS'B'
aS'_salt'
p2
a.(lp1
.(lp1
S'text'
p2
aS'style'
p3
aS'uid'
p4
a.(lp1
S'7367f'
p2
a.(lp1
S'7008a'
p2
a.(lp1
S'rm'
p2
aS'shared_name'
p3
aS'file_id'
p4
a.(lp1
S'ver'
p2
aS'rnd'
p3
a.(lp1
.(lp1
S'frandom'
p2
aS'address'
p3
aS'id'
p4
aS'update'
p5
a.(lp1
.(lp1
.(lp1
S'a4d44'
p2
a.(lp1
S'c'
aS't'
a.(lp1
.(lp1
.(lp1
S'ver'
p2
aS'rnd'
p3
a.(lp1
S'c'
aS't'
aS'v'
a.(lp1
S'7f6a2'
p2
a.(lp1
S'b'
aS'tm'
p2
aS'v'
aS'tid'
p3
aS'r'
aS'id'
p4
a.(lp1
S'b4550'
p2
a.(lp1
S'c3afb'
p2
a.(lp1
.(lp1
.(lp1
S'c'
aS't'
aS'v'
a.(lp1
S'ver'
p2
aS'rnd'
p3
a.(lp1
S'u_tz'
p2
aS'u_his'
p3
aS'u_h'
p4
aS'domain_name'
p5
aS'frm'
p6
aS'callback'
p7
aS's'
aS'client'
p8
aS'kw'
p9
aS'hl'
p10
aS'output'
p11
aS'dt'
p12
aS'u_w'
p13
aS'channel'
p14
aS'num_radlinks'
p15
a.(lp1
.(lp1
.(lp1
S'7f7bb'
p2
a.(lp1
S'version'
p2
a.(lp1
S'c'
aS't'
aS'v'
a.(lp1
S'I'
aS'U'
aS'D'
aS'01AD'
p2
aS'V'
a.(lp1
.(lp1
.(lp1
.(lp1
S'b42ef'
p2
a.(lp1
.(lp1
S'c'
aS't'
aS'v'
a.(lp1
S'pg_cte'
p2
aS'type'
p3
a.(lp1
S'smtp'
p2
aS'tick'
p3
aS'ver'
p4
aS'id'
p5
aS'task'
p6
a.(lp1
.(lp1
.(lp1
S'a2133'
p2
a.(lp1
S'v'
aS'data'
p2
aS'affid'
p3
a.(lp1
.(lp1
S'ch'
p2
aS'dim'
p3
aS'z'
a.(lp1
S'ver'
p2
aS'rnd'
p3
a.(lp1
.(lp1
.(lp1
.(lp1
S'c'
aS'v'
a.(lp1
S'ver'
p2
aS'rnd'
p3
a.(lp1
.(lp1
S'a'
aS'product'
p2
aS'b'
aS'language'
p3
aS'module'
p4
aS'n'
aS'version'
p5
aS'error'
p6
aS'y'
aS'os'
p7
a.(lp1
S'ax0'
p2
aS'ver'
p3
aS'rnd'
p4
a.(lp1
.(lp1
S'clickTag'
p2
a.(lp1
S'OSInfo'
p2
aS'ver'
p3
aS'GMC'
p4
aS'srv'
p5
aS'pin'
p6
a.(lp1
.(lp1
S'7bf85'
p2
a.(lp1
S'c'
aS't'
a.(lp1
.(lp1
S'navbarType'
p2
aS'publishMode'
p3
aS'searchRoot'
p4
aS'blogLocale'
p5
aS'targetBlogID'
p6
aS'blogName'
p7
aS'layoutType'
p8
aS'homepageUrl'
p9
a.(lp1
S'ver'
p2
aS'rnd'
p3
a.(lp1
.(lp1
S't'
a.(lp1
.(lp1
.(lp1
.(lp1
S'qq'
p2
a.(lp1
S'windowsVersion'
p2
aS'localeId'
p3
aS'rversion'
p4
aS'fxp'
p5
aS'updatevalue'
p6
aS'version'
p7
aS'affid'
p8
aS'guid'
p9
a.(lp1
S'inf'
p2
aS'scn'
p3
aS'ver'
p4
aS'id'
p5
aS'cnt'
p6
a.(lp1
S'lang'
p2
aS'ix'
p3
aS'icversion'
p4
aS'cid'
p5
aS'locale'
p6
aS'cscid'
p7
aS'v.method'
p8
aS'con'
p9
aS'mt'
p10
aS'SAIRND'
p11
aS'chid'
p12
aS'hdid'
p13
aS'tid'
p14
aS'v.installername'
p15
aS'browser'
p16
aS'os'
p17
aS'cc'
p18
aS'icname'
p19
a.(lp1
.(lp1
S'774ff'
p2
a.(lp1
S'ix'
p2
aS'cid'
p3
aS'cc'
p4
aS'v.method'
p5
aS'SrS2x.code'
p6
aS'SrS3x.code'
p7
aS'v.installcompleteurl'
p8
aS'v.s'
p9
aS'SAIRND'
p10
aS'hdid'
p11
aS'icbrandid'
p12
aS'v.installername'
p13
aS'con'
p14
aS'os'
p15
aS'v.rascsi'
p16
aS'chid'
p17
aS'browser'
p18
a.(lp1
S'p'
a.(lp1
S'loc'
p2
aS'campaignid'
p3
aS'cb'
p4
aS'zoneid'
p5
aS'referer'
p6
aS'bannerid'
p7
a.(lp1
.(lp1
S'7535d'
p2
a.(lp1
S'9fa04'
p2
a.(lp1
S'udata'
p2
a.(lp1
S'ver'
p2
aS'rnd'
p3
a.(lp1
.(lp1
S'rnd'
p2
a.(lp1
S'rnd'
p2
a.(lp1
S'8e306'
p2
a.(lp1
S'b78b4'
p2
a.(lp1
S'stat'
p2
aS'guid'
p3
a.(lp1
S'ck'
p2
aS'ver'
p3
aS'win'
p4
aS'mfset'
p5
aS'debug'
p6
aS'mac'
p7
aS'adset'
p8
aS'asset'
p9
aS'_cache'
p10
aS'adn'
p11
aS'dist'
p12
aS'ie'
p13
aS'shset'
p14
a.(lp1
S'9eb5e'
p2
a.(lp1
S'6ffaf'
p2
a.(lp1
S'83532'
p2
a.(lp1
S'a20e5'
p2
a.(lp1
.(lp1
S'90f65'
p2
a.(lp1
.(lp1
S'sub_id'
p2
aS'source_id'
p3
aS'uzid'
p4
aS'pid'
p5
aS'iid'
p6
a.(lp1
.(lp1
S'a7445'
p2
a.(lp1
.(lp1
S'80b24'
p2
a.(lp1
.(lp1
S'lang'
p2
aS'ix'
p3
aS'icversion'
p4
aS'cid'
p5
aS'locale'
p6
aS'cscid'
p7
aS'v.method'
p8
aS'con'
p9
aS'mt'
p10
aS'v.s'
p11
aS'SAIRND'
p12
aS'chid'
p13
aS'hdid'
p14
aS'tid'
p15
aS'v.installername'
p16
aS'browser'
p17
aS'os'
p18
aS'cc'
p19
aS'icname'
p20
a.(lp1
S'a852d'
p2
a.(lp1
.(lp1
.(lp1
S'utmsc'
p2
aS'utmhid'
p3
aS'utmac'
p4
aS'utmwv'
p5
aS'utmr'
p6
aS'utmn'
p7
aS'utmhn'
p8
aS'utmp'
p9
aS'utmdt'
p10
aS'utmsr'
p11
aS'utmcs'
p12
aS'utmul'
p13
aS'utmfl'
p14
aS'utmje'
p15
aS'utmcn'
p16
aS'utmcc'
p17
a.(lp1
.(lp1
S'ver'
p2
aS'rnd'
p3
a.(lp1
S'aaeec'
p2
a.(lp1
S'7be5c'
p2
a.(lp1
S'frandom'
p2
a.(lp1
S'9ae74'
p2
a.(lp1
S'rnd'
p2
a.(lp1
.(lp1
.(lp1
.(lp1
S'ver'
p2
aS'rnd'
p3
a.(lp1
.(lp1
S'ix'
p2
aS'locale'
p3
aS'v.s'
p4
aS'SAIRND'
p5
aS'v.method'
p6
aS'chid'
p7
aS'v.optp'
p8
aS'cc'
p9
aS'tid'
p10
aS'v.rascsi'
p11
aS'v.opac'
p12
aS'hdid'
p13
aS'v.installername'
p14
aS'icname'
p15
aS'lang'
p16
aS'icversion'
p17
aS'cid'
p18
aS'cscid'
p19
aS'mt'
p20
aS'browser'
p21
aS'os'
p22
aS'con'
p23
a.(lp1
S'do'
p2
a.(lp1
.(lp1
S'73b9f'
p2
a.(lp1
S'windowsVersion'
p2
aS'localeId'
p3
aS'rversion'
p4
aS'fxp'
p5
aS'updatevalue'
p6
aS'version'
p7
aS'affid'
p8
aS'guid'
p9
a.(lp1
S'82f46'
p2
a.(lp1
.(lp1
S'adv'
p2
a.(lp1
S'SAIRND'
p2
a.(lp1
S'a7406'
p2
a.(lp1
S'clid'
p2
aS'sid'
p3
a.(lp1
S'.rand'
p2
a.(lp1
S'ver'
p2
aS'rnd'
p3
a.(lp1
.(lp1
.(lp1
S'jigcb'
p2
aS'comparisonshopping'
p3
aS'platform'
p4
aS'version'
p5
aS'location'
p6
aS'action'
p7
aS'channel'
p8
aS'details'
p9
a.(lp1
S'id'
p2
aS'cachingDeny'
p3
a.(lp1
S'v.offer'
p2
aS'v.sid'
p3
a.(lp1
.(lp1
S'SAIRND'
p2
a.(lp1
S'ver'
p2
aS'rnd'
p3
a.(lp1
S'6cb51'
p2
a.(lp1
S'click'
p2
aS'rnd'
p3
a.(lp1
S'ver'
p2
aS'rnd'
p3
a.(lp1
S'9ba8a'
p2
a.(lp1
S'7a4e8'
p2
a.(lp1
S'chaid'
p2
aS'p'
aS's'
aS'r'
aS't'
aS'dt'
p3
a.(lp1
S'74479'
p2
a.(lp1
.(lp1
S'tq'
p2
a.(lp1
S'lang'
p2
aS'ix'
p3
aS'tpl'
p4
aS'icversion'
p5
aS'cid'
p6
aS'locale'
p7
aS'cscid'
p8
aS'v.method'
p9
aS'con'
p10
aS'mt'
p11
aS'SAIRND'
p12
aS'chid'
p13
aS'hdid'
p14
aS'tid'
p15
aS'v.installername'
p16
aS'browser'
p17
aS'os'
p18
aS'cc'
p19
aS'icname'
p20
a.(lp1
S'uid'
p2
a.(lp1
.(lp1
.(lp1
.(lp1
S'rnd'
p2
a.(lp1
.(lp1
.(lp1
.(lp1
S'aid'
p2
aS'v'
a.(lp1
S'ver'
p2
aS'rnd'
p3
a.(lp1
.(lp1
S'83dfc'
p2
a.(lp1
.(lp1
S'cacheBust'
p2
aS'id'
p3
aS'key'
p4
a.(lp1
.(lp1
.(lp1
.(lp1
S'q'
aS'zw'
p2
a.(lp1
.(lp1
.(lp1
S'SAIRND'
p2
a.(lp1
.(lp1
.(lp1
.(lp1
.(lp1
S'max'
p2
aS'pt'
p3
aS'ec'
p4
aS'query'
p5
a.(lp1
.(lp1
.(lp1
S'7dd1f'
p2
a.(lp1
.(lp1
S'B'
aS's'
aS'r'
aS'u'
aS'_salt'
p2
aS'Z'
a.(lp1
S'ae27f'
p2
a.(lp1
S'77c61'
p2
a.(lp1
.(lp1
.(lp1
S'udata'
p2
a.(lp1
S'tq'
p2
a.(lp1
S'rnd'
p2
a.(lp1
.(lp1
.(lp1
S'do'
p2
aS'lct'
p3
aS'IP'
p4
aS'coid'
p5
aS'v'
aS'fff'
p6
a.(lp1
S'8c201'
p2
a.(lp1
S'flash'
p2
aS'u_his'
p3
aS'u_nmime'
p4
aS'ga_fc'
p5
aS'correlator'
p6
aS'ga_hid'
p7
aS'slotname'
p8
aS'xpc'
p9
aS'u_h'
p10
aS'frm'
p11
aS'u_w'
p12
aS'adk'
p13
aS'ga_vid'
p14
aS'fu'
p15
aS'bih'
p16
aS'u_cd'
p17
aS'lmt'
p18
aS'u_ah'
p19
aS'u_aw'
p20
aS'jsv'
p21
aS'ga_sid'
p22
aS'biw'
p23
aS'dt'
p24
aS'u_tz'
p25
aS'u_java'
p26
aS'shv'
p27
aS'url'
p28
aS'h'
aS'u_nplug'
p29
aS'dtd'
p30
aS'p'
aS'client'
p31
aS'w'
aS'output'
p32
aS'ifi'
p33
a.(lp1
.(lp1
S'tq'
p2
a.(lp1
.(lp1
S't'
aS'app_type_id'
p2
aS'u'
aS'wm_id'
p3
aS'v'
a.(lp1
.(lp1
S'c'
aS't'
a.(lp1
S'szmac'
p2
aS'papalen'
p3
aS'palen'
p4
aS'papapalen'
p5
aS'value'
p6
aS'szname'
p7
aS'szpapaname'
p8
aS'mode'
p9
aS'chksum'
p10
aS'szpaname'
p11
aS'rid'
p12
aS'szclientid'
p13
aS'systype'
p14
aS'szusername'
p15
aS'szver'
p16
a.(lp1
S'9e91c'
p2
a.(lp1
S'c'
aS't'
aS'v'
a.(lp1
.(lp1
S'v.offer'
p2
aS'v.sid'
p3
a.(lp1
S'ax0'
p2
aS'ver'
p3
aS'rnd'
p4
a.(lp1
S'ver'
p2
aS'rnd'
p3
a.(lp1
.(lp1
S'lang'
p2
aS'ix'
p3
aS'v.optp'
p4
aS'icversion'
p5
aS'cid'
p6
aS'locale'
p7
aS'cscid'
p8
aS'v.method'
p9
aS'con'
p10
aS'mt'
p11
aS'v.opac'
p12
aS'v.s'
p13
aS'SAIRND'
p14
aS'chid'
p15
aS'hdid'
p16
aS'tid'
p17
aS'v.installername'
p18
aS'browser'
p19
aS'os'
p20
aS'cc'
p21
aS'icname'
p22
a.(lp1
.(lp1
S'ix'
p2
aS'locale'
p3
aS'v.s'
p4
aS'SAIRND'
p5
aS'v.method'
p6
aS'chid'
p7
aS'v.rppre'
p8
aS'v.optp'
p9
aS'cc'
p10
aS'tid'
p11
aS'v.opac'
p12
aS'hdid'
p13
aS'v.installername'
p14
aS'icname'
p15
aS'lang'
p16
aS'icversion'
p17
aS'cid'
p18
aS'cscid'
p19
aS'mt'
p20
aS'browser'
p21
aS'os'
p22
aS'con'
p23
a.(lp1
S'ad_size'
p2
aS'ad_type'
p3
aS'section'
p4
a.(lp1
S'7f01a'
p2
a.(lp1
S'7636b'
p2
a.(lp1
.(lp1
.(lp1
S'ver'
p2
aS'rnd'
p3
a.(lp1
S'ban'
p2
aS'id'
p3
a.(lp1
S'rnd'
p2
a.(lp1
S'ver'
p2
aS'rnd'
p3
a.(lp1
S'7155a'
p2
a.(lp1
.(lp1
.(lp1
S'70a6d'
p2
a.(lp1
.(lp1
.(lp1
S'width'
p2
aS'path'
p3
a.(lp1
.(lp1
.(lp1
S'72d09'
p2
a.(lp1
S'c'
aS'v'
a.(lp1
.(lp1
.(lp1
S'aa7d8'
p2
a.(lp1
S'utmsc'
p2
aS'utmhid'
p3
aS'utmac'
p4
aS'utmwv'
p5
aS'utmr'
p6
aS'utmn'
p7
aS'utmhn'
p8
aS'utmp'
p9
aS'utmdt'
p10
aS'utmsr'
p11
aS'utmcs'
p12
aS'utmu'
p13
aS'utmul'
p14
aS'utmfl'
p15
aS'utmje'
p16
aS'utmcc'
p17
a.(lp1
S'rnd'
p2
a.(lp1
S'advId'
p2
aS'bn'
p3
aS'pid'
p4
aS'nid'
p5
aS'part'
p6
aS'parentid'
p7
a.(lp1
.(lp1
.(lp1
S'ver'
p2
aS'rnd'
p3
a.(lp1
S'a5bac'
p2
a.(lp1
S'a5265'
p2
a.(lp1
.(lp1
S'74f46'
p2
a.(lp1
.(lp1
S'tq'
p2
a.(lp1
S'URLRND'
p2
a.(lp1
S'utmsc'
p2
aS'utmhid'
p3
aS'utmac'
p4
aS'utmwv'
p5
aS'utmr'
p6
aS'utmn'
p7
aS'utmhn'
p8
aS'utmp'
p9
aS'utmdt'
p10
aS'utmsr'
p11
aS'utmcs'
p12
aS'utmu'
p13
aS'utmul'
p14
aS'utmfl'
p15
aS'utmje'
p16
aS'utmcc'
p17
a.(lp1
S'rnd'
p2
a.(lp1
S'lang'
p2
aS'ix'
p3
aS'v.optp'
p4
aS'icversion'
p5
aS'cid'
p6
aS'locale'
p7
aS'cscid'
p8
aS'v.method'
p9
aS'con'
p10
aS'mt'
p11
aS'v.opac'
p12
aS'v.s'
p13
aS'SAIRND'
p14
aS'chid'
p15
aS'hdid'
p16
aS'tid'
p17
aS'v.installername'
p18
aS'browser'
p19
aS'os'
p20
aS'cc'
p21
aS'icname'
p22
a.(lp1
S'0d40b0'
p2
a.(lp1
S'a18f6'
p2
a.(lp1
S'ver'
p2
aS'rnd'
p3
a.(lp1
.(lp1
.(lp1
.(lp1
S'v.offer'
p2
aS'v.sid'
p3
a.(lp1
S'aeb49'
p2
a.(lp1
S'ver'
p2
aS'rnd'
p3
a.(lp1
S'product'
p2
aS'b'
aS'e'
aS'd'
aS'language'
p3
aS'c'
aS'module'
p4
aS'MID'
p5
aS'version'
p6
aS'error'
p7
aS'y'
aS'z'
aS'OS'
p8
aS'zzz'
p9
a.(lp1
.(lp1
S'epl'
p2
a.(lp1
S'97cd5'
p2
a.(lp1
S'inf'
p2
aS'scn'
p3
aS'ver'
p4
aS'id'
p5
aS'cnt'
p6
a.(lp1
S'aa5b5'
p2
a.(lp1
S'ver'
p2
aS'rnd'
p3
a.(lp1
S'ver'
p2
aS'rnd'
p3
a.(lp1
S'nocache'
p2
a.(lp1
S'ae185'
p2
a.(lp1
S'01RI'
p2
aS'01AD'
p3
a.(lp1
S't'
a.(lp1
S'ax0'
p2
aS'ver'
p3
aS'rnd'
p4
a.(lp1
S'x'
a.(lp1
S'7bfb4'
p2
a.(lp1
S'ver'
p2
aS'rnd'
p3
a.(lp1
.(lp1
S'ver'
p2
aS'rnd'
p3
a.(lp1
S'B'
aS's'
aS'r'
aS'u'
aS'_salt'
p2
aS'Z'
a.(lp1
S'abd83'
p2
a.(lp1
S'c'
aS'v'
a.(lp1
.(lp1
S'801dd'
p2
a.(lp1
S'm'
aS'g'
a.(lp1
.(lp1
S'p'
aS'r'
a.(lp1
S't'
a.(lp1
S'q'
aS'idtLabel'
p2
aS'search'
p3
aS'num'
p4
aS'idtURL'
p5
a.(lp1
S't'
a.(lp1
S'ver'
p2
aS'rnd'
p3
a.(lp1
.(lp1
S'vrsn'
p2
aS'tags'
p3
aS'age'
p4
aS'hrdId'
p5
aS'instlDate'
p6
aS'aflt'
p7
aS'prdct'
p8
a.(lp1
S'I'
aS'U'
aS'D'
aS'01AD'
p2
aS'V'
a.(lp1
.(lp1
S'aac9a'
p2
a.(lp1
S'tq'
p2
a.(lp1
S'ver'
p2
aS'rnd'
p3
a.(lp1
.(lp1
S'uot3152'
p2
a.(lp1
S'a9162'
p2
a.(lp1
.(lp1
S'ver'
p2
aS'rnd'
p3
a.(lp1
S'adv'
p2
a.(lp1
S'c'
aS't'
aS'v'
a.(lp1
S'ver'
p2
aS'rnd'
p3
a.(lp1
S'id'
p2
aS'58600'
p3
a.(lp1
S'lang'
p2
aS'ix'
p3
aS'icversion'
p4
aS'cid'
p5
aS'locale'
p6
aS'cscid'
p7
aS'v.method'
p8
aS'con'
p9
aS'D_ts'
p10
aS'mt'
p11
aS'SAIRND'
p12
aS'D_loc'
p13
aS'hdid'
p14
aS'tid'
p15
aS'chid'
p16
aS'v.installername'
p17
aS'browser'
p18
aS'os'
p19
aS'D_tzo'
p20
aS'cc'
p21
aS'icname'
p22
a.(lp1
S'wd'
p2
aS'mb'
p3
aS'zd'
p4
aS'ut'
p5
aS'sp'
p6
aS'ls'
p7
aS'bs'
p8
aS'act'
p9
aS'hiido'
p10
aS'ss'
p11
aS'vr'
p12
aS'ui'
p13
aS'sn'
p14
aS'sl'
p15
aS'fd'
p16
aS'fl'
p17
aS'nw'
p18
a.(lp1
.(lp1
S'tq'
p2
a.(lp1
S'ix'
p2
aS'cc'
p3
aS'SrS3x.code'
p4
aS'SrS2x.code'
p5
aS'v.s'
p6
aS'SAIRND'
p7
aS'v.method'
p8
aS'realplayer.code'
p9
aS'v.installername'
p10
aS'chid'
p11
aS'v.optp'
p12
aS'SrS31.code'
p13
aS'v.rascsi'
p14
aS'v.opac'
p15
aS'hdid'
p16
aS'icbrandid'
p17
aS'clickpotato.code'
p18
aS'rpgoogletb.code'
p19
aS'cid'
p20
aS'rpwcdesktop.code'
p21
aS'rpchrome.code'
p22
aS'browser'
p23
aS'os'
p24
aS'con'
p25
a.(lp1
S'id'
p2
aS'rnd'
p3
a.(lp1
S'keyid'
p2
aS'afid'
p3
aS'version'
p4
aS'user_id'
p5
a.(lp1
S'task'
p2
aS'errors[716]'
p3
aS'errors[710]'
p4
aS'errors[554]'
p5
aS'errors[719]'
p6
aS'errors[718]'
p7
aS'errors[0]'
p8
aS'errors[703]'
p9
aS'id'
p10
aS'errors[713]'
p11
a.(lp1
S'ver'
p2
aS'rnd'
p3
a.(lp1
.(lp1
S'v.offer'
p2
aS'v.sid'
p3
a.(lp1
S'domain'
p2
aS'vc'
p3
aS'color'
p4
aS'app'
p5
aS'ss_no'
p6
aS'ec'
p7
aS'uv_new'
p8
aS'lg'
p9
aS'cnu'
p10
aS'charset'
p11
aS'unit_id'
p12
aS'uv_id'
p13
aS'filtered'
p14
aS'fv'
p15
aS'screen'
p16
aS'agent'
p17
aS'je'
p18
aS'hashval'
p19
aS'url'
p20
aS'ut'
p21
aS'st'
p22
aS'url_id'
p23
aS'ss_id'
p24
a.(lp1
S'sq'
p2
aS'uid'
p3
a.(lp1
S'ndh'
p2
aS'c'
aS'v'
aS'vidn'
p3
aS'g'
aS'k'
aS'j'
aS'bh'
p4
aS'server'
p5
aS'AQE'
p6
aS's'
aS'bw'
p7
aS't'
aS'AQB'
p8
aS'pccr'
p9
aS'hp'
p10
aS'ct'
p11
a.(lp1
.(lp1
S'ver'
p2
aS'rnd'
p3
a.(lp1
S'7cdae'
p2
a.(lp1
S't'
a.(lp1
.(lp1
.(lp1
S'ver'
p2
aS'rnd'
p3
a.(lp1
.(lp1
S'token'
p2
aS'id'
p3
a.(lp1
S'SAIRND'
p2
a.(lp1
S'lang'
p2
aS'secure'
p3
aS'title'
p4
aS'res'
p5
aS'site_id'
p6
aS'href'
p7
aS'mime'
p8
aS'x'
aS'jsuid'
p9
a.(lp1
S'ver'
p2
aS'rnd'
p3
a.(lp1
S'mc'
p2
a.(lp1
S'not_dn'
p2
aS'brand'
p3
aS'userid'
p4
aS'old_v'
p5
aS'hl'
p6
aS'ci_app'
p7
aS'gl'
p8
a.(lp1
S'ver'
p2
aS'rnd'
p3
a.(lp1
S'pcrc'
p2
a.(lp1
.(lp1
S't'
a.(lp1
S'7bfe3'
p2
a.(lp1
.(lp1
S'71cad'
p2
a.(lp1
S't'
a.(lp1
S'id'
p2
a.(lp1
.(lp1
S'frandom'
p2
a.(lp1
.(lp1
S'c'
aS't'
aS'v'
a.(lp1
S'username'
p2
aS'area'
p3
aS'mac'
p4
aS'rank'
p5
aS'server'
p6
aS'pwd'
p7
aS'channel'
p8
a.(lp1
S'v.offer'
p2
aS'v.sid'
p3
a.(lp1
S't'
a.(lp1
S'jkfwkey'
p2
a.(lp1
S'ad_zid'
p2
a.(lp1
.(lp1
S'adv'
p2
aS'c'
aS'id'
p3
a.(lp1
S'tq'
p2
a.(lp1
.(lp1
.(lp1
.(lp1
S'p'
aS's'
aS'client'
p2
aS'id'
p3
a.(lp1
S'epl'
p2
a.(lp1
S'B'
aS's'
aS'r'
aS'u'
aS'_salt'
p2
aS'Z'
a.(lp1
S'995ac'
p2
a.(lp1
S'c'
aS't'
aS'v'
a.(lp1
.(lp1
S'86421'
p2
a.(lp1
S'v.offer'
p2
aS'v.sid'
p3
a.(lp1
S'rev'
p2
a.(lp1
S'num'
p2
aS'code'
p3
aS'rev'
p4
aS'param'
p5
a.(lp1
S'action'
p2
aS'rt'
p3
aS's'
aS'e'
aS'v'
a.(lp1
S'rnd'
p2
a.(lp1
S'language'
p2
aS'returning'
p3
aS'color'
p4
aS'ua'
p5
aS'location'
p6
aS'resolution'
p7
aS'id'
p8
a.(lp1
S'tq'
p2
a.(lp1
S'84203'
p2
a.(lp1
.(lp1
S'bb86d'
p2
a.(lp1
.(lp1
S'rnd'
p2
a.(lp1
S'CN'
p2
aS'CID'
p3
aS'DID'
p4
aS'DCID'
p5
aS'AN'
p6
aS'AID'
p7
a.(lp1
.(lp1
S'cdt'
p2
aS'dat'
p3
aS'url'
p4
aS'ver'
p5
aS'cli'
p6
a.(lp1
S'sessid'
p2
a.(lp1
S'7cf63'
p2
a.(lp1
S'q'
aS've'
p2
a.(lp1
S'ver'
p2
aS'rnd'
p3
a.(lp1
S'lan'
p2
aS'ver'
p3
aS'uid'
p4
aS'cc'
p5
aS'country'
p6
aS'cmpname'
p7
aS'idle'
p8
a.(lp1
S'code'
p2
aS'hstr'
p3
aS'CBRehoppp2'
p4
aS'key'
p5
a.(lp1
S'status'
p2
aS'extra'
p3
aS'system'
p4
aS'n'
aS'type'
p5
aS'id'
p6
a.(lp1
S'keywordCharEnc'
p2
aS'outputCharEnc'
p3
aS'ref'
p4
aS'sq'
p5
aS'serveUrl'
p6
aS'adultFilter'
p7
aS'affilData'
p8
aS'maxCount'
p9
aS'Keywords'
p10
aS'Partner'
p11
aS'type'
p12
a.(lp1
.(lp1
S'c'
aS't'
a.(lp1
S'8239e'
p2
a.(lp1
S'MYW1'
p2
a.(lp1
S'ver'
p2
aS'rnd'
p3
a.(lp1
S'7b11d'
p2
a.(lp1
.(lp1
.(lp1
S'c'
aS't'
a.(lp1
S'tq'
p2
a.(lp1
S'v.offer'
p2
aS'v.sid'
p3
a.(lp1
S'zjacgH4f0R'
p2
a.(lp1
.(lp1
.(lp1
S'b963f'
p2
a.(lp1
S'ver'
p2
aS'rnd'
p3
a.(lp1
S'I'
aS'U'
aS'D'
aS'01AD'
p2
aS'V'
a.(lp1
S'os'
p2
aS'mac'
p3
aS'ver'
p4
aS'dtime'
p5
a.(lp1
.(lp1
S'l_url'
p2
aS'L_etc'
p3
a.(lp1
S'7be6c'
p2
a.(lp1
.(lp1
.(lp1
S'a59f6'
p2
a.(lp1
S't'
a.(lp1
S'6d861'
p2
aS'id'
p3
a.(lp1
S'ma'
p2
aS'd'
aS'mi'
p3
aS'brand'
p4
aS'userid'
p5
aS'hl'
p6
aS'v'
aS'gl'
p7
a.(lp1
S'i'
aS'a'
aS'w'
a.(lp1
.(lp1
S'c'
aS't'
a.(lp1
S'ver'
p2
aS'rnd'
p3
a.(lp1
S'data'
p2
a.(lp1
.(lp1
S'7c503'
p2
a.(lp1
S'c3'
p2
aS'c2'
p3
aS'c1'
p4
aS'c10'
p5
aS'c4'
p6
a.(lp1
S'CN'
p2
aS'CID'
p3
aS'DID'
p4
aS'DCID'
p5
aS'AN'
p6
aS'AID'
p7
a.(lp1
S'data'
p2
a.(lp1
.(lp1
.(lp1
S'7cca4'
p2
a.(lp1
S'ver'
p2
aS'rnd'
p3
a.(lp1
.(lp1
S'lang'
p2
aS'ix'
p3
aS'icversion'
p4
aS'cid'
p5
aS'locale'
p6
aS'cscid'
p7
aS'v.method'
p8
aS'con'
p9
aS'mt'
p10
aS'SAIRND'
p11
aS'chid'
p12
aS'hdid'
p13
aS'tid'
p14
aS'v.installername'
p15
aS'browser'
p16
aS'os'
p17
aS'cc'
p18
aS'icname'
p19
a.(lp1
.(lp1
S'lang'
p2
aS'ix'
p3
aS'icversion'
p4
aS'cid'
p5
aS'locale'
p6
aS'cscid'
p7
aS'v.method'
p8
aS'con'
p9
aS'D_ts'
p10
aS'mt'
p11
aS'SAIRND'
p12
aS'D_loc'
p13
aS'hdid'
p14
aS'tid'
p15
aS'chid'
p16
aS'v.installername'
p17
aS'browser'
p18
aS'os'
p19
aS'D_tzo'
p20
aS'cc'
p21
aS'icname'
p22
a.(lp1
S'name'
p2
aS'cid'
p3
a.(lp1
.(lp1
S'u_tz'
p2
aS'flash'
p3
aS'slotname'
p4
aS'u_java'
p5
aS'url'
p6
aS'u_cd'
p7
aS'ga_sid'
p8
aS'ea'
p9
aS'frm'
p10
aS'u_ah'
p11
aS'u_aw'
p12
aS'client'
p13
aS'u_w'
p14
aS'correlator'
p15
aS'output'
p16
aS'dt'
p17
aS'dtd'
p18
aS'ga_hid'
p19
aS'u_h'
p20
aS'ga_vid'
p21
a.(lp1
S'action'
p2
aS'entity'
p3
aS'guid'
p4
aS'uid'
p5
aS'rnd'
p6
a.(lp1
S'b36c9'
p2
a.(lp1
S'7026f'
p2
a.(lp1
.(lp1
S'rtime'
p2
aS'lg'
p3
aS'showp'
p4
aS'repeatip'
p5
aS'st'
p6
aS'cnzz_eid'
p7
aS'res'
p8
aS'ntime'
p9
aS'id'
p10
a.(lp1
.(lp1
S'v.offer'
p2
aS'v.sid'
p3
a.(lp1
.(lp1
S'aa567'
p2
a.(lp1
S'vm'
p2
aS'al'
p3
aS'p'
aS'key'
p4
aS'av'
p5
aS'z'
aS'os'
p6
aS'id'
p7
a.(lp1
S'a3c8b'
p2
a.(lp1
.(lp1
S'frandom'
p2
a.(lp1
S'version'
p2
aS'fxp'
p3
a.(lp1
S'8fc6a'
p2
a.(lp1
S'tq'
p2
a.(lp1
S'size'
p2
aS'banned_pop_types'
p3
aS'section_code'
p4
aS'pop_frequency'
p5
aS'site'
p6
aS'ad_type'
p7
aS'ad_size'
p8
aS'siteid'
p9
aS'pub_redirect_unencoded'
p10
aS'anmember'
p11
aS'pub_redirect'
p12
aS'pop_times'
p13
a.(lp1
S'dat'
p2
aS'cdt'
p3
aS'url'
p4
aS'ver'
p5
aS'cli'
p6
a.(lp1
S'c'
aS't'
a.(lp1
S'rnd'
p2
a.(lp1
S'ver'
p2
aS'rnd'
p3
a.(lp1
S'7c273'
p2
a.(lp1
S'867bb'
p2
a.(lp1
S'szid'
p2
aS'systype'
p3
a.(lp1
S'SAIRND'
p2
a.(lp1
S'aid'
p2
aS'fw_key'
p3
aS'uid'
p4
a.(lp1
.(lp1
.(lp1
S'Start'
p2
aS'FC'
p3
aS'File'
p4
aS'Size'
p5
a.(lp1
.(lp1
S'tq'
p2
a.(lp1
.(lp1
.(lp1
S'7a1cb'
p2
a.(lp1
S'ver'
p2
aS'rnd'
p3
a.(lp1
S'q'
aS'he'
p2
a.(lp1
S'7c745'
p2
a.(lp1
.(lp1
S'B'
aS'anmember'
p2
aS's'
aS'r'
aS'_salt'
p3
aS'Z'
a.(lp1
S'B'
aS'f'
aS'o'
aS'x-cookie'
p2
aS's'
aS'r'
aS'u'
aS'_salt'
p3
aS'SIG'
p4
aS'Z'
a.(lp1
S'rnd'
p2
a.(lp1
.(lp1
S'v89'
p2
aS'tq'
p3
a.(lp1
S'NTAIvy'
p2
aS'm'
aS'bNmyOyCDx'
p3
aS'55fb'
p4
aS'f1e2'
p5
aS'id_numb'
p6
aS'4e8a'
p7
a.(lp1
.(lp1
.(lp1
S'utmsc'
p2
aS'utmhid'
p3
aS'utmac'
p4
aS'utmwv'
p5
aS'utmr'
p6
aS'utmn'
p7
aS'utmhn'
p8
aS'utmp'
p9
aS'utmdt'
p10
aS'utmsr'
p11
aS'utmcs'
p12
aS'utmu'
p13
aS'utmul'
p14
aS'utmfl'
p15
aS'utmje'
p16
aS'utmcc'
p17
a.(lp1
S'9ba6a'
p2
a.(lp1
.(lp1
S'lport'
p2
aS'sox'
p3
aS'rsid'
p4
aS'slots'
p5
aS'v'
a.(lp1
S'ua'
p2
aS'aff'
p3
aS'version'
p4
aS'hwid'
p5
a.(lp1
S'c'
aS't'
a.(lp1
S'ver'
p2
aS'rnd'
p3
a.(lp1
S'file'
p2
a.(lp1
S'c'
aS't'
a.(lp1
S'9d507'
p2
a.(lp1
S'stat'
p2
aS'ccrc'
p3
aS'ver'
p4
aS'plg'
p5
aS'guid'
p6
aS'cpu'
p7
aS'md5'
p8
a.(lp1
.(lp1
.(lp1
S'ver'
p2
aS'rnd'
p3
a.(lp1
.(lp1
S'info'
p2
aS'ver'
p3
aS'sid'
p4
a.(lp1
S'p'
aS'r'
a.(lp1
.(lp1
S'labels'
p2
a.(lp1
S'dat'
p2
aS'cdt'
p3
aS'url'
p4
aS'ver'
p5
aS'cli'
p6
a.(lp1
S'a39fb'
p2
a.(lp1
S'v'
a.(lp1
S'ver'
p2
aS'rnd'
p3
a.(lp1
.(lp1
.(lp1
S'adv'
p2
aS'code1'
p3
aS'code2'
p4
aS'b'
aS'c'
aS'p'
aS'id'
p5
a.(lp1
S'6f04e'
p2
a.(lp1
S'ver'
p2
aS'rnd'
p3
a.(lp1
.(lp1
.(lp1
S't'
a.(lp1
S'code'
p2
a.(lp1
S't5'
p2
a.(lp1
S'9e497'
p2
a.(lp1
S'l'
aS'o'
a.(lp1
.(lp1
S'7f8a6'
p2
a.(lp1
S'section'
p2
aS'ad_size'
p3
aS'pub_redirect'
p4
aS'ad_type'
p5
aS'anmember'
p6
a.(lp1
S'c'
aS't'
aS'v'
a.(lp1
.(lp1
S'ver'
p2
aS'uid'
p3
aS'rtype'
p4
a.(lp1
S'7b757'
p2
a.(lp1
S'c'
aS'v'
a.(lp1
S'p'
aS's'
a.(lp1
S'795c5'
p2
a.(lp1
S'ver'
p2
aS'rnd'
p3
a.(lp1
S'Serv'
p2
aS'Gold'
p3
aS'Area'
p4
aS'WOWID'
p5
aS'pc'
p6
aS'WU'
p7
aS'sn'
p8
aS'WP'
p9
a.(lp1
S'rnd'
p2
a.(lp1
S'ver'
p2
aS'rnd'
p3
a.(lp1
S'AID'
p2
aS'CID'
p3
a.(lp1
S'7acc8'
p2
a.(lp1
S'm'
aS'u'
aS'v'
a.(lp1
.(lp1
S'aid'
p2
aS'fw_key'
p3
aS'uid'
p4
a.(lp1
.(lp1
S'B'
aS'f'
aS'o'
aS'x-cookie'
p2
aS's'
aS'r'
aS'u'
aS'_salt'
p3
aS'x'
aS'Z'
aS'SIG'
p4
a.(lp1
.(lp1
.(lp1
S'B'
aS's'
aS'r'
aS'u'
aS'_salt'
p2
aS'Z'
a.(lp1
S'uid'
p2
a.(lp1
S'ver'
p2
aS'rnd'
p3
a.(lp1
.(lp1
S'8d2e9'
p2
a.(lp1
S'oo'
p2
aS'jutr'
p3
aS'b4253'
p4
aS'ra'
p5
a.(lp1
S'v.offer'
p2
aS'v.sid'
p3
a.(lp1
.(lp1
.(lp1
S'ver'
p2
aS'rnd'
p3
a.(lp1
S'lq_aid'
p2
aS'sid'
p3
a.(lp1
S'udata'
p2
a.(lp1
.(lp1
S'bdf3e'
p2
a.(lp1
S'ver'
p2
aS'rnd'
p3
a.(lp1
S'ver'
p2
aS'rnd'
p3
a.(lp1
S'tq'
p2
a.(lp1
S'uid'
p2
a.(lp1
S'ver'
p2
aS'rnd'
p3
a.(lp1
S't2c'
p2
a.(lp1
.(lp1
S'rnd'
p2
a.(lp1
S'u44RAfxnFwDtRWQAAAAAAOlfGQAAAAAAAgAAAAYAAAAAAP8AAAAAAD9aJAAAAAAACHsHAAAAAACO4iEAAAAAAAAAAAAAAAAAAAAAAAAAAAAAAAAAAAAAAAAAAAAAAAAAAAAAAAAAAAB9Og8AAAAAAAIAAwAAAAAAFoxK6gQ0kT8WjErqBDSRP3rpJjEIrJw.eukmMQisnD97FK5H4XqkP3sUrkfheqQ.AAAAAAAAAAAAAAAAAAAAAAAAAAAAAAAAAAAAAAAAAAAJwvAAwy59CR4zpejGGA6VUoQNpv0dnyig0WHHAAAAAA'
p2
a.(lp1
S'73863'
p2
a.(lp1
.(lp1
.(lp1
S'serveNUrl'
p2
aS'keyword'
p3
aS'ranks'
p4
aS'serveUrl'
p5
aS'cddtc'
p6
aS'userip'
p7
aS'xfip'
p8
a.(lp1
.(lp1
.(lp1
S'c'
aS't'
a.(lp1
.(lp1
S'utm_gclid'
p2
aS'utm_id'
p3
aS'utm_medium'
p4
a.(lp1
S'dat'
p2
aS'cdt'
p3
aS'url'
p4
aS'ver'
p5
aS'cli'
p6
a.(lp1
S'B'
aS's'
aS'r'
aS'u'
aS'_salt'
p2
aS'Z'
a.(lp1
.(lp1
S'status'
p2
aS'extra'
p3
aS'system'
p4
aS'n'
aS'type'
p5
aS'id'
p6
a.(lp1
S'9cba1'
p2
a.(lp1
S'v'
a.(lp1
S'b'
aS'uid'
p2
aS'site'
p3
aS'o'
aS'rnd'
p4
aS'v'
aS'size'
p5
a.(lp1
S'rnd'
p2
a.(lp1
S'79fa9'
p2
a.(lp1
.(lp1
.(lp1
S'bt'
p2
aS'pz'
p3
aS'rnd'
p4
aS'tail256'
p5
aS'sid'
p6
a.(lp1
.(lp1
S'lg'
p2
aS'skin_id'
p3
aS'dvd_id'
p4
aS'tracker_id'
p5
aS'link_id'
p6
a.(lp1
.(lp1
.(lp1
S't'
a.(lp1
S'rtime'
p2
aS'lg'
p3
aS'showp'
p4
aS'repeatip'
p5
aS'st'
p6
aS'cnzz_eid'
p7
aS'res'
p8
aS'ntime'
p9
aS'id'
p10
a.(lp1
.(lp1
S'c'
aS't'
aS'v'
a.(lp1
S'964a9'
p2
a.(lp1
S'aff'
p2
aS'version'
p3
aS'hwid'
p4
a.(lp1
.(lp1
S'm'
aS'g'
a.(lp1
S'SAIRND'
p2
a.(lp1
S'mac'
p2
aS'ver'
p3
a.(lp1
.(lp1
S'd'
a.(lp1
S'b02b9'
p2
a.(lp1
S'757d2'
p2
a.(lp1
S'rnd'
p2
a.(lp1
S'h157y131'
p2
a.(lp1
S'ss'
p2
aS'aspcode'
p3
aS'Query'
p4
a.(lp1
.(lp1
S'ver'
p2
aS'rnd'
p3
a.(lp1
S'B'
aS's'
aS'r'
aS'u'
aS'_salt'
p2
aS'Z'
a.(lp1
.(lp1
S'ver'
p2
aS'rnd'
p3
a.(lp1
S'8de14'
p2
a.(lp1
S'c'
aS'cn'
p2
aS'mc'
p3
aS'rtu'
p4
aS'ord'
p5
aS'pli'
p6
aS'PluID'
p7
a.(lp1
.(lp1
.(lp1
S'adv'
p2
a.(lp1
S'B'
aS's'
aS'r'
aS'u'
aS'_salt'
p2
aS'Z'
a.(lp1
.(lp1
S'g'
a.(lp1
S'utmsc'
p2
aS'utmhid'
p3
aS'utmac'
p4
aS'utmwv'
p5
aS'utmr'
p6
aS'utmn'
p7
aS'utmhn'
p8
aS'utmp'
p9
aS'utmdt'
p10
aS'utmsr'
p11
aS'utmcs'
p12
aS'utmul'
p13
aS'utmfl'
p14
aS'utmje'
p15
aS'utmcc'
p16
a.(lp1
S'ver'
p2
aS'rnd'
p3
a.(lp1
S'status'
p2
aS'extra'
p3
aS'system'
p4
aS'n'
aS'type'
p5
aS'id'
p6
a.(lp1
S'7c1c7'
p2
a.(lp1
S'6de0e'
p2
a.(lp1
.(lp1
S'a3690'
p2
a.(lp1
S'750ae'
p2
a.(lp1
S'0d40b0'
p2
a.(lp1
.(lp1
S'ver'
p2
aS'rnd'
p3
a.(lp1
S'82553'
p2
a.(lp1
.(lp1
S'I'
aS'U'
aS'D'
aS'01AD'
p2
aS'V'
a.(lp1
S'ver'
p2
aS'rnd'
p3
a.(lp1
S'a5d32'
p2
a.(lp1
S'81229'
p2
a.(lp1
S'def387'
p2
a.(lp1
.(lp1
.(lp1
S'show_join_link'
p2
aS'spcpromo_creative'
p3
aS'js_select'
p4
aS'link_color'
p5
aS'pid'
p6
aS'this_page'
p7
aS'background_color'
p8
aS'size'
p9
aS'rows'
p10
aS'title_color'
p11
aS'width'
p12
aS'rollover_header_color'
p13
aS'override'
p14
aS'models'
p15
aS'border_color'
p16
aS'text_color'
p17
aS'show_title'
p18
aS'pic_border_width'
p19
aS'target'
p20
aS'pic_border_color'
p21
aS'find_sex'
p22
aS'p'
aS'iframe'
p23
a.(lp1
S'ix'
p2
aS'cc'
p3
aS'SrS3x.code'
p4
aS'SrS2x.code'
p5
aS'v.s'
p6
aS'SAIRND'
p7
aS'v.method'
p8
aS'realplayer.code'
p9
aS'v.installername'
p10
aS'chid'
p11
aS'v.optp'
p12
aS'SrS31.code'
p13
aS'v.rascsi'
p14
aS'v.opac'
p15
aS'hdid'
p16
aS'icbrandid'
p17
aS'clickpotato.code'
p18
aS'rpgoogletb.code'
p19
aS'cid'
p20
aS'rpwcdesktop.code'
p21
aS'rpchrome.code'
p22
aS'browser'
p23
aS'os'
p24
aS'con'
p25
a.(lp1
S'_saje'
p2
aS'_sam_u'
p3
aS'_sad_u'
p4
aS'_saw_u'
p5
aS'_sace'
p6
aS'_sares'
p7
aS'_sarnd'
p8
aS'_sadh_u'
p9
aS'_saa_u'
p10
aS'_sacol'
p11
aS'_sav'
p12
aS'_sawd_u'
p13
aS'_say_u'
p14
aS'_salogin'
p15
aS'_sanv'
p16
a.(lp1
S'ver'
p2
aS'rnd'
p3
a.(lp1
S'1'
a.(lp1
.(lp1
.(lp1
S'a0e66'
p2
a.(lp1
.(lp1
S'mac'
p2
aS'cnt_type'
p3
aS'realid'
p4
aS'mer_seq'
p5
a.(lp1
.(lp1
.(lp1
.(lp1
S'84faf'
p2
a.(lp1
S'6e83f'
p2
a.(lp1
.(lp1
S'7c14a'
p2
a.(lp1
S'rnd'
p2
a.(lp1
.(lp1
S'er'
p2
aS'ver'
p3
aS'id'
p4
aS'v'
a.(lp1
.(lp1
.(lp1
S'ring'
p2
a.(lp1
.(lp1
.(lp1
.(lp1
S'selid'
p2
aS'dfhaegeh'
p3
aS'mac'
p4
a.(lp1
S'adv'
p2
a.(lp1
.(lp1
.(lp1
S'830ae'
p2
a.(lp1
S'u_h'
p2
aS'u_his'
p3
aS'ea'
p4
aS'color_border'
p5
aS'correlator'
p6
aS'ga_hid'
p7
aS'loc'
p8
aS'flash'
p9
aS'frm'
p10
aS'color_bg'
p11
aS'u_w'
p12
aS'ga_vid'
p13
aS'format'
p14
aS'u_cd'
p15
aS'color_url'
p16
aS'lmt'
p17
aS'u_tz'
p18
aS'u_ah'
p19
aS'u_aw'
p20
aS'ga_sid'
p21
aS'dt'
p22
aS'color_link'
p23
aS'prev_fmts'
p24
aS'u_java'
p25
aS'url'
p26
aS'client'
p27
aS'eid'
p28
aS'output'
p29
aS'color_text'
p30
a.(lp1
S'ver'
p2
aS'rnd'
p3
a.(lp1
.(lp1
.(lp1
S'username'
p2
aS'djwy'
p3
aS'password'
p4
aS'submit'
p5
aS'op_type'
p6
a.(lp1
S'd'
a.(lp1
S'a'
aS'do'
p2
aS'c'
aS'b'
aS'e'
aS'd'
a.(lp1
.(lp1
S'__viewstate'
p2
a.(lp1
S'9c7e8'
p2
a.(lp1
S'ini'
p2
a.(lp1
S'ver'
p2
aS'rnd'
p3
a.(lp1
.(lp1
.(lp1
.(lp1
.(lp1
.(lp1
S'SAIRND'
p2
a.(lp1
S'b368b'
p2
a.(lp1
.(lp1
S'01UE'
p2
aS'D'
aS'01AD'
p3
aS'I'
aS'segs'
p4
aS'U'
aS'V'
aS'net'
p5
aS'op'
p6
a.(lp1
.(lp1
S't2c'
p2
a.(lp1
S'uid'
p2
a.(lp1
S'ver'
p2
aS'rnd'
p3
a.(lp1
S'utmcs'
p2
aS'utmhid'
p3
aS'utmac'
p4
aS'utmwv'
p5
aS'utmr'
p6
aS'utmn'
p7
aS'utmhn'
p8
aS'utmp'
p9
aS'utmdt'
p10
aS'utmsr'
p11
aS'utms'
p12
aS'utmu'
p13
aS'utmsc'
p14
aS'utmul'
p15
aS'utmfl'
p16
aS'utmje'
p17
aS'utmcc'
p18
a.(lp1
.(lp1
.(lp1
.(lp1
S'updated'
p2
a.(lp1
S'ver'
p2
aS'rnd'
p3
a.(lp1
S'fxp'
p2
a.(lp1
.(lp1
S'ab45b'
p2
a.(lp1
S'szmac'
p2
aS'papalen'
p3
aS'palen'
p4
aS'chksum'
p5
aS'value'
p6
aS'szname'
p7
aS'mode'
p8
aS'papapalen'
p9
aS'rid'
p10
aS'szclientid'
p11
aS'systype'
p12
aS'szusername'
p13
aS'szver'
p14
a.(lp1
S'q'
aS'wv'
p2
a.(lp1
S'6a422'
p2
aS'id'
p3
a.(lp1
.(lp1
.(lp1
.(lp1
S'id_numb'
p2
aS'm'
aS'u5nxx'
p3
aS'5edd'
p4
aS'IpGOqG'
p5
a.(lp1
S'q'
a.(lp1
.(lp1
S'75c56'
p2
a.(lp1
.(lp1
S'ver'
p2
aS'rnd'
p3
a.(lp1
S'data'
p2
a.(lp1
S'ver'
p2
aS'rnd'
p3
a.(lp1
S'utmsc'
p2
aS'utmhid'
p3
aS'utmac'
p4
aS'utmwv'
p5
aS'utmr'
p6
aS'utmn'
p7
aS'utmhn'
p8
aS'utmp'
p9
aS'utmdt'
p10
aS'utmsr'
p11
aS'utmcs'
p12
aS'utmul'
p13
aS'utmfl'
p14
aS'utmje'
p15
aS'utmcn'
p16
aS'utmcc'
p17
a.(lp1
.(lp1
S'7945e'
p2
a.(lp1
S'ver'
p2
aS'rnd'
p3
a.(lp1
S'ck'
p2
aS'dist'
p3
aS'win'
p4
aS'debug'
p5
aS'adn'
p6
aS'mac'
p7
aS'adset'
p8
aS'asset'
p9
aS'action'
p10
aS'ver'
p11
aS'ie'
p12
aS'shset'
p13
a.(lp1
S'ver'
p2
aS'rnd'
p3
a.(lp1
.(lp1
S'ax0'
p2
aS'ver'
p3
aS'rnd'
p4
a.(lp1
S'ver'
p2
aS'rnd'
p3
a.(lp1
.(lp1
.(lp1
S'd'
a.(lp1
.(lp1
S'action'
p2
aS'cdata1'
p3
a.(lp1
.(lp1
.(lp1
S'ver'
p2
aS'userid'
p3
aS'makedate'
p4
aS'mac'
p5
aS'Key'
p6
aS'comput'
p7
a.(lp1
S'B'
aS'f'
aS'o'
aS'x-cookie'
p2
aS's'
aS'r'
aS'u'
aS'_salt'
p3
aS'SIG'
p4
aS'Z'
a.(lp1
.(lp1
.(lp1
S'hl'
p2
a.(lp1
S'a4d35'
p2
a.(lp1
.(lp1
S'ver'
p2
aS'rnd'
p3
a.(lp1
S'uid'
p2
a.(lp1
S'utmcs'
p2
aS'utmhid'
p3
aS'utmac'
p4
aS'utmwv'
p5
aS'utmr'
p6
aS'utmn'
p7
aS'utmhn'
p8
aS'utmp'
p9
aS'utmdt'
p10
aS'utmsr'
p11
aS'utms'
p12
aS'utmu'
p13
aS'utmsc'
p14
aS'utmul'
p15
aS'utmfl'
p16
aS'utmje'
p17
aS'utmcc'
p18
a.(lp1
S'bfdf2'
p2
a.(lp1
S'827f3'
p2
a.(lp1
.(lp1
S'clickTag1'
p2
aS'clickTag'
p3
aS'ver'
p4
a.(lp1
S'c'
a.(lp1
S'SAIRND'
p2
a.(lp1
S'attredirects'
p2
aS'attachauth'
p3
a.(lp1
S'op'
p2
a.(lp1
S'a7936'
p2
a.(lp1
S'8b89a'
p2
a.(lp1
.(lp1
S'769c4'
p2
a.(lp1
S'username'
p2
aS'ad_id'
p3
a.(lp1
S'rnd'
p2
a.(lp1
.(lp1
.(lp1
.(lp1
.(lp1
S'86b55'
p2
a.(lp1
S'jkfwkey'
p2
a.(lp1
S'ver'
p2
aS'rnd'
p3
a.(lp1
.(lp1
S'ck'
p2
aS'sz'
p3
aS'est'
p4
aS'd'
aS'cb'
p5
aS'enc'
p6
aS'cachebuster'
p7
aS'l'
aS'api'
p8
aS'pub'
p9
aS'pcat'
p10
aS'fl'
p11
a.(lp1
S'B'
aS's'
aS'r'
aS'u'
aS'_salt'
p2
aS'Z'
a.(lp1
S'p'
aS's'
aS'client'
p2
aS'id'
p3
aS'rnd'
p4
a.(lp1
S'lid'
p2
aS'sv'
p3
aS'uid'
p4
aS'v'
a.(lp1
S'ac497'
p2
a.(lp1
S'record'
p2
aS'jkfwkey'
p3
a.(lp1
S't'
a.(lp1
.(lp1
S'9f919'
p2
a.(lp1
.(lp1
S'c'
aS't'
aS'v'
a.(lp1
S'rnd'
p2
a.(lp1
S'q'
aS'enk'
p2
a.(lp1
S'v.offer'
p2
aS'v.sid'
p3
a.(lp1
S'rnd'
p2
a.(lp1
.(lp1
S'821aa'
p2
a.(lp1
S'ver'
p2
aS'rnd'
p3
a.(lp1
S'v.offer'
p2
aS'v.sid'
p3
a.(lp1
.(lp1
S'7b227'
p2
a.(lp1
.(lp1
S'fr'
p2
aS'itag'
p3
aS'kgs'
p4
aS'q'
aS'p'
aS'kls'
p5
a.(lp1
.(lp1
S'73b61'
p2
a.(lp1
S'tm'
p2
aS'b'
aS'id'
p3
aS'v'
a.(lp1
S'uid'
p2
a.(lp1
S'ver'
p2
aS'rnd'
p3
a.(lp1
S'fl'
p2
aS'het19'
p3
a.(lp1
S'847df'
p2
a.(lp1
S'B'
aS's'
aS'r'
aS'u'
aS'_salt'
p2
aS'Z'
a.(lp1
S'rtime'
p2
aS'lg'
p3
aS'showp'
p4
aS'repeatip'
p5
aS'st'
p6
aS'cnzz_eid'
p7
aS'res'
p8
aS'ntime'
p9
aS'id'
p10
a.(lp1
S'B'
aS's'
aS'r'
aS'u'
aS'_salt'
p2
aS'Z'
a.(lp1
.(lp1
S'7e676'
p2
a.(lp1
S'lan'
p2
aS'ver'
p3
aS'uid'
p4
aS'cc'
p5
aS'country'
p6
aS'cmpname'
p7
aS'idle'
p8
a.(lp1
S'6f511'
p2
a.(lp1
S'B'
aS'anmember'
p2
aS's'
aS'r'
aS'_salt'
p3
aS'x'
aS'Z'
a.(lp1
S'ver'
p2
aS'rnd'
p3
a.(lp1
S'7ecbf'
p2
a.(lp1
S'q'
aS'aid'
p2
aS'u'
a.(lp1
.(lp1
S'search'
p2
aS'imageHost'
p3
aS'color1'
p4
aS'leftSep2'
p5
aS'leftSep1'
p6
aS'color2'
p7
aS'colorSchemeCode'
p8
aS'contentBg'
p9
a.(lp1
.(lp1
S'c'
aS't'
a.(lp1
S'9fabf'
p2
a.(lp1
.(lp1
S'ajax_verify_2'
p2
aS'nonce'
p3
aS'style'
p4
aS'psig'
p5
aS'lang'
p6
aS'k'
aS'authp'
p7
aS'ajax'
p8
aS'type'
p9
a.(lp1
.(lp1
S'rnd'
p2
a.(lp1
S'ver'
p2
aS'rnd'
p3
a.(lp1
S'722c8'
p2
a.(lp1
S'rnd'
p2
a.(lp1
.(lp1
S'ver'
p2
aS'rnd'
p3
a.(lp1
S'lport'
p2
aS'sox'
p3
aS'slots'
p4
aS'v'
a.(lp1
S't'
a.(lp1
.(lp1
S'frandom'
p2
a.(lp1
S'96b8f'
p2
a.(lp1
S'c2fdf'
p2
a.(lp1
S'v.offer'
p2
aS'v.sid'
p3
a.(lp1
S'dat'
p2
aS'cdt'
p3
aS'url'
p4
aS'ver'
p5
aS'cli'
p6
a.(lp1
.(lp1
S'a39fb'
p2
a.(lp1
S'Epoch'
p2
a.(lp1
S'stat'
p2
aS'ccrc'
p3
aS'ver'
p4
aS'os'
p5
aS'ut'
p6
aS'guid'
p7
aS'ie'
p8
aS'cpu'
p9
a.(lp1
S'ghost'
p2
aS'pos'
p3
aS'son'
p4
aS'gparam'
p5
aS'zid'
p6
aS'zpar4'
p7
aS'new'
p8
aS'anz'
p9
aS'size'
p10
a.(lp1
S'b5aeb'
p2
a.(lp1
S'url'
p2
aS'cm_id'
p3
a.(lp1
S'80c5d'
p2
a.(lp1
S'rnd'
p2
a.(lp1
S'6b7ba'
p2
a.(lp1
S'ver'
p2
aS'rnd'
p3
a.(lp1
S'tq'
p2
a.(lp1
.(lp1
S'ver'
p2
aS'rnd'
p3
a.(lp1
S'utmcs'
p2
aS'utmhid'
p3
aS'utmac'
p4
aS'utmwv'
p5
aS'utmr'
p6
aS'utmn'
p7
aS'utmhn'
p8
aS'utmp'
p9
aS'utmdt'
p10
aS'utmsr'
p11
aS'utms'
p12
aS'utmu'
p13
aS'utmsc'
p14
aS'utmul'
p15
aS'utmfl'
p16
aS'utmje'
p17
aS'utmcc'
p18
a.(lp1
.(lp1
S'q'
aS'ptype'
p2
a.(lp1
S'c'
aS't'
aS'v'
a.(lp1
.(lp1
.(lp1
S'B'
aS's'
aS'r'
aS'u'
aS'_salt'
p2
aS'Z'
a.(lp1
S'ver'
p2
aS'rnd'
p3
a.(lp1
S'rid'
p2
aS'r'
aS'm'
aS's'
a.(lp1
.(lp1
S'er'
p2
aS'ver'
p3
aS'id'
p4
aS'v'
a.(lp1
S't'
a.(lp1
.(lp1
.(lp1
S'rtime'
p2
aS'lg'
p3
aS'showp'
p4
aS'repeatip'
p5
aS'st'
p6
aS'cnzz_eid'
p7
aS'res'
p8
aS'ntime'
p9
aS'id'
p10
a.(lp1
S'c'
aS't'
a.(lp1
S'b996b'
p2
a.(lp1
.(lp1
.(lp1
S'ver'
p2
aS'rnd'
p3
a.(lp1
S'ix'
p2
aS'cc'
p3
aS'SrS3x.code'
p4
aS'SrS2x.code'
p5
aS'v.s'
p6
aS'SAIRND'
p7
aS'v.method'
p8
aS'realplayer.code'
p9
aS'v.installername'
p10
aS'chid'
p11
aS'v.optp'
p12
aS'SrS31.code'
p13
aS'v.rascsi'
p14
aS'v.opac'
p15
aS'hdid'
p16
aS'icbrandid'
p17
aS'clickpotato.code'
p18
aS'rpgoogletb.code'
p19
aS'cid'
p20
aS'rpwcdesktop.code'
p21
aS'rpchrome.code'
p22
aS'browser'
p23
aS'os'
p24
aS'con'
p25
a.(lp1
S'f_url'
p2
aS'appid'
p3
aS'hide_title_bar'
p4
aS'link_target'
p5
aS's_url'
p6
aS'qlogin_jumpname'
p7
aS'target'
p8
a.(lp1
S'epl'
p2
a.(lp1
S'tgid'
p2
aS'old'
p3
aS'flag'
p4
aS'ver'
p5
aS'address'
p6
a.(lp1
S't'
a.(lp1
S'ver'
p2
aS'rnd'
p3
a.(lp1
S'84956'
p2
a.(lp1
S'876cf'
p2
a.(lp1
S'6e1d7'
p2
a.(lp1
.(lp1
S'a660c'
p2
a.(lp1
S'81e00'
p2
a.(lp1
.(lp1
S'subid'
p2
aS'type'
p3
aS'bids'
p4
aS'id'
p5
aS'gridnum'
p6
a.(lp1
.(lp1
S'id'
p2
a.(lp1
S'dat'
p2
aS'cdt'
p3
aS'url'
p4
aS'ver'
p5
aS'cli'
p6
a.(lp1
.(lp1
S'rnd'
p2
a.(lp1
S'a924c'
p2
a.(lp1
S'7be3d'
p2
a.(lp1
.(lp1
S'rnd'
p2
a.(lp1
S'B'
aS'cipid'
p2
aS's'
aS'r'
aS'u'
aS'_salt'
p3
aS'Z'
a.(lp1
S'a'
aS'm'
aS's'
aS'u'
a.(lp1
.(lp1
.(lp1
S'v.offer'
p2
aS'v.sid'
p3
a.(lp1
.(lp1
.(lp1
S'id'
p2
a.(lp1
.(lp1
S'ver'
p2
aS'rnd'
p3
a.(lp1
S'Action'
p2
aS'SessionID'
p3
a.(lp1
S'ver'
p2
aS'rnd'
p3
a.(lp1
S'rnd'
p2
a.(lp1
S'6f8f9'
p2
aS'id'
p3
a.(lp1
S'ver'
p2
aS'rnd'
p3
a.(lp1
S'utmcs'
p2
aS'utmhid'
p3
aS'utmac'
p4
aS'utmwv'
p5
aS'utmr'
p6
aS'utmn'
p7
aS'utmhn'
p8
aS'utmp'
p9
aS'utmdt'
p10
aS'utmsr'
p11
aS'utms'
p12
aS'utmu'
p13
aS'utmsc'
p14
aS'utmul'
p15
aS'utmfl'
p16
aS'utmje'
p17
aS'utmcc'
p18
a.(lp1
S'7b18b'
p2
a.(lp1
.(lp1
S'rnd'
p2
a.(lp1
S'navbarType'
p2
aS'publishMode'
p3
aS'searchRoot'
p4
aS'blogLocale'
p5
aS'targetBlogID'
p6
aS'blogName'
p7
aS'layoutType'
p8
aS'homepageUrl'
p9
a.(lp1
S'rnd'
p2
a.(lp1
S'InboxSortAscending'
p2
aS'InboxSortBy'
p3
aS'FolderID'
p4
aS'n'
a.(lp1
.(lp1
S'data'
p2
a.(lp1
.(lp1
.(lp1
S'rnd'
p2
a.(lp1
.(lp1
S'pcrc'
p2
a.(lp1
S'a051f'
p2
a.(lp1
S'a1f4f'
p2
a.(lp1
S'b5e85'
p2
a.(lp1
S'a'
aS'cnmn'
p2
aS'au'
p3
aS'ptid'
p4
a.(lp1
S'ver'
p2
aS'rnd'
p3
a.(lp1
S'70695'
p2
a.(lp1
S'9f59f'
p2
a.(lp1
S'rnd'
p2
aS'r'
aS'l'
aS'pos'
p3
a.(lp1
S'utmcs'
p2
aS'utmhid'
p3
aS'utmac'
p4
aS'utmwv'
p5
aS'utmr'
p6
aS'utmn'
p7
aS'utmhn'
p8
aS'utmp'
p9
aS'utmdt'
p10
aS'utmsr'
p11
aS'utms'
p12
aS'utmu'
p13
aS'utmsc'
p14
aS'utmul'
p15
aS'utmfl'
p16
aS'utmje'
p17
aS'utmcc'
p18
a.(lp1
S'a'
aS'c'
aS'e'
aS'f'
aS'tv'
p2
aS'l'
aS'n'
aS'p'
aS's'
aS'r'
aS'br'
p3
aS'v'
a.(lp1
S'status'
p2
aS'extra'
p3
aS'system'
p4
aS'n'
aS'type'
p5
aS'id'
p6
a.(lp1
S'rnd'
p2
a.(lp1
.(lp1
S'c'
a.(lp1
.(lp1
S'not_dn'
p2
aS'brand'
p3
aS'userid'
p4
aS'old_v'
p5
aS'hl'
p6
aS'v'
aS'ci_app'
p7
aS'gl'
p8
a.(lp1
S'76d8c'
p2
a.(lp1
S'b8816'
p2
a.(lp1
S'lang'
p2
aS'ix'
p3
aS'v.optp'
p4
aS'icversion'
p5
aS'cid'
p6
aS'locale'
p7
aS'cscid'
p8
aS'v.method'
p9
aS'con'
p10
aS'mt'
p11
aS'v.opac'
p12
aS'v.s'
p13
aS'SAIRND'
p14
aS'chid'
p15
aS'hdid'
p16
aS'tid'
p17
aS'v.installername'
p18
aS'browser'
p19
aS'os'
p20
aS'cc'
p21
aS'icname'
p22
a.(lp1
S'c4ced'
p2
aS'id'
p3
a.(lp1
.(lp1
.(lp1
S'a2fba'
p2
a.(lp1
.(lp1
.(lp1
.(lp1
S'ad_size'
p2
aS'ad_type'
p3
aS'section'
p4
a.(lp1
S'lang'
p2
aS'ix'
p3
aS'v.rppre'
p4
aS'icversion'
p5
aS'cid'
p6
aS'locale'
p7
aS'cscid'
p8
aS'v.method'
p9
aS'con'
p10
aS'mt'
p11
aS'v.s'
p12
aS'SAIRND'
p13
aS'chid'
p14
aS'hdid'
p15
aS'tid'
p16
aS'v.installername'
p17
aS'browser'
p18
aS'os'
p19
aS'cc'
p20
aS'icname'
p21
a.(lp1
.(lp1
S'ini'
p2
a.(lp1
S'ver'
p2
aS'rnd'
p3
a.(lp1
.(lp1
S'SET @S'
p2
a.(lp1
S'qy'
p2
aS'bn'
p3
a.(lp1
.(lp1
S'ver'
p2
aS'rnd'
p3
a.(lp1
S'qq'
p2
a.(lp1
S'v.offer'
p2
aS'v.sid'
p3
a.(lp1
S'0d40b0'
p2
a.(lp1
S'stat'
p2
aS'ccrc'
p3
aS'ver'
p4
aS'os'
p5
aS'ut'
p6
aS'guid'
p7
aS'ie'
p8
aS'cpu'
p9
aS'md5'
p10
a.(lp1
.(lp1
S'786e1'
p2
a.(lp1
.(lp1
.(lp1
S'v.offer'
p2
aS'v.sid'
p3
a.(lp1
.(lp1
S'79623'
p2
a.(lp1
S'article'
p2
aS'lr'
p3
aS'page'
p4
aS'key'
p5
aS'do'
p6
a.(lp1
S'7054d'
p2
a.(lp1
S'8a7a3'
p2
a.(lp1
.(lp1
S'MAC'
p2
aS'id'
p3
aS'md5'
p4
a.(lp1
.(lp1
S'version'
p2
aS'fxp'
p3
a.(lp1
.(lp1
.(lp1
S't'
a.(lp1
S'79a3a'
p2
a.(lp1
S'v.offer'
p2
aS'v.sid'
p3
a.(lp1
.(lp1
S'ver'
p2
aS'rnd'
p3
a.(lp1
.(lp1
S'ver'
p2
aS'rnd'
p3
a.(lp1
S'c'
aS't'
aS'v'
a.(lp1
.(lp1
S'id'
p2
a.(lp1
S'a99be'
p2
a.(lp1
S'757e2'
p2
a.(lp1
S'.rand'
p2
a.(lp1
.(lp1
S'acfc2'
p2
a.(lp1
.(lp1
S'9dbfc'
p2
a.(lp1
S'SAIRND'
p2
a.(lp1
S't'
a.(lp1
S'rnd'
p2
a.(lp1
.(lp1
S'from'
p2
a.(lp1
S'rtime'
p2
aS'lg'
p3
aS'showp'
p4
aS'repeatip'
p5
aS'st'
p6
aS'cnzz_eid'
p7
aS'res'
p8
aS'ntime'
p9
aS'id'
p10
a.(lp1
.(lp1
S'ver'
p2
aS'rnd'
p3
a.(lp1
S'c'
aS't'
aS'v'
a.(lp1
.(lp1
.(lp1
S'u'
a.(lp1
.(lp1
.(lp1
.(lp1
S'9uO79'
p2
a.(lp1
.(lp1
S'c'
aS't'
aS'v'
a.(lp1
S'a9181'
p2
a.(lp1
.(lp1
S'ver'
p2
aS'rnd'
p3
a.(lp1
S'p'
a.(lp1
S'ver'
p2
aS'rnd'
p3
a.(lp1
S'ad7b2'
p2
a.(lp1
.(lp1
S'partner'
p2
aS'appuser'
p3
aS'appgroup'
p4
aS'appid'
p5
a.(lp1
S'q'
aS'm'
a.(lp1
S'a24bd'
p2
a.(lp1
S'utmsc'
p2
aS'utmhid'
p3
aS'utmac'
p4
aS'utmwv'
p5
aS'utmr'
p6
aS'utmn'
p7
aS'utmhn'
p8
aS'utmp'
p9
aS'utmdt'
p10
aS'utmsr'
p11
aS'utmcs'
p12
aS'utmu'
p13
aS'utmul'
p14
aS'utmfl'
p15
aS'utmje'
p16
aS'utmcc'
p17
a.(lp1
.(lp1
.(lp1
.(lp1
.(lp1
.(lp1
S't'
a.(lp1
S'udata'
p2
a.(lp1
S'logdata'
p2
aS'appcheck'
p3
aS'pid'
p4
aS'ver'
p5
aS'prj'
p6
a.(lp1
.(lp1
S'ver'
p2
aS'rnd'
p3
a.(lp1
.(lp1
S'c2'
p2
aS'c1'
p3
aS'c7'
p4
aS'rn'
p5
aS'cv'
p6
a.(lp1
S'aeb69'
p2
a.(lp1
S'ver'
p2
aS'rnd'
p3
a.(lp1
S'action'
p2
a.(lp1
S'rnd'
p2
a.(lp1
.(lp1
S's'
aS'r'
aS'd'
a.(lp1
.(lp1
.(lp1
.(lp1
S'adv'
p2
a.(lp1
S'83bf8'
p2
a.(lp1
S'ver'
p2
aS'rnd'
p3
a.(lp1
.(lp1
S'ver'
p2
aS'rnd'
p3
a.(lp1
S'ini'
p2
a.(lp1
S'ver'
p2
aS'rnd'
p3
a.(lp1
.(lp1
.(lp1
S'rnd'
p2
a.(lp1
S'8b57e'
p2
a.(lp1
S'ver'
p2
aS'rnd'
p3
a.(lp1
S'6f0ea'
p2
a.(lp1
.(lp1
S'lang'
p2
aS'ix'
p3
aS'icversion'
p4
aS'cid'
p5
aS'locale'
p6
aS'cscid'
p7
aS'v.method'
p8
aS'con'
p9
aS'mt'
p10
aS'SAIRND'
p11
aS'chid'
p12
aS'hdid'
p13
aS'tid'
p14
aS'v.installername'
p15
aS'browser'
p16
aS'os'
p17
aS'cc'
p18
aS'icname'
p19
a.(lp1
S'b1864'
p2
a.(lp1
S'tq'
p2
a.(lp1
S'd'
aS'f'
aS'i'
aS'h'
aS'tl'
p2
aS'o'
aS'si'
p3
aS'so'
p4
aS'v'
a.(lp1
S'status'
p2
aS'dl'
p3
a.(lp1
S'adv'
p2
aS'code1'
p3
aS'code2'
p4
aS'id'
p5
aS'p'
a.(lp1
S'89747'
p2
a.(lp1
S'g'
a.(lp1
S'ver'
p2
aS'rnd'
p3
a.(lp1
S'lang'
p2
aS'ix'
p3
aS'v.op2'
p4
aS'icversion'
p5
aS'cid'
p6
aS'locale'
p7
aS'cscid'
p8
aS'v.method'
p9
aS'con'
p10
aS'mt'
p11
aS'v.op1'
p12
aS'v.s'
p13
aS'SAIRND'
p14
aS'chid'
p15
aS'hdid'
p16
aS'tid'
p17
aS'v.installername'
p18
aS'browser'
p19
aS'os'
p20
aS'cc'
p21
aS'icname'
p22
a.(lp1
S'ver'
p2
aS'rnd'
p3
a.(lp1
.(lp1
.(lp1
.(lp1
.(lp1
S'c'
aS't'
aS'v'
a.(lp1
S't'
a.(lp1
S'tq'
p2
a.(lp1
S'8f67e'
p2
a.(lp1
.(lp1
.(lp1
S'ini'
p2
a.(lp1
.(lp1
S'ch'
p2
aS'tp'
p3
a.(lp1
S'ver'
p2
aS'uid'
p3
aS'traff'
p4
a.(lp1
S'rnd'
p2
a.(lp1
S's'
aS'r'
aS'd'
a.(lp1
S'ver'
p2
aS'rnd'
p3
a.(lp1
S'ver'
p2
aS'rnd'
p3
a.(lp1
S'ver'
p2
aS'rnd'
p3
a.(lp1
.(lp1
S'8f7a7'
p2
a.(lp1
S'ver'
p2
aS'rnd'
p3
a.(lp1
S'a1e83'
p2
a.(lp1
S'uid'
p2
aS'ip'
p3
aS'client_ref'
p4
aS'client_ua'
p5
aS'query'
p6
aS'type'
p7
a.(lp1
S'c'
aS'ch'
p2
aS'ad'
p3
aS's'
aS'r'
aS'sa'
p4
a.(lp1
S'78385'
p2
a.(lp1
.(lp1
.(lp1
.(lp1
S'tq'
p2
a.(lp1
S'766d6'
p2
a.(lp1
S'7879c'
p2
a.(lp1
S'7b6ca'
p2
a.(lp1
S't'
a.(lp1
S'c2'
p2
aS'c1'
p3
aS'c5'
p4
aS'c4'
p5
a.(lp1
S'ver'
p2
aS'rnd'
p3
a.(lp1
S'a2ae7'
p2
a.(lp1
.(lp1
S'b46d7'
p2
a.(lp1
S'9ae74'
p2
a.(lp1
S'uid'
p2
a.(lp1
S'ver'
p2
aS'rnd'
p3
a.(lp1
S'CN'
p2
aS'CID'
p3
aS'DID'
p4
aS'DCID'
p5
aS'AN'
p6
aS'AID'
p7
a.(lp1
S'windowsVersion'
p2
aS'localeId'
p3
aS'rversion'
p4
aS'fxp'
p5
aS'updatevalue'
p6
aS'version'
p7
aS'affid'
p8
aS'guid'
p9
a.(lp1
S'ver'
p2
aS'rnd'
p3
a.(lp1
S'ver'
p2
aS'rnd'
p3
a.(lp1
.(lp1
.(lp1
S'g'
a.(lp1
S'713a5'
p2
a.(lp1
S'tq'
p2
a.(lp1
S'ver'
p2
aS'rnd'
p3
a.(lp1
S'c'
aS't'
aS'v'
a.(lp1
S'855f8'
p2
a.(lp1
S'Itemid'
p2
aS'task'
p3
aS'option'
p4
aS'id'
p5
a.(lp1
S'7a71b'
p2
a.(lp1
S'q'
aS'fq'
p2
a.(lp1
S'v.offer'
p2
a.(lp1
S'ver'
p2
aS'rnd'
p3
a.(lp1
.(lp1
S'v.offer'
p2
aS'v.sid'
p3
a.(lp1
.(lp1
S'769d3'
p2
a.(lp1
S't'
a.(lp1
S'ver'
p2
aS'rnd'
p3
a.(lp1
.(lp1
S'78d3a'
p2
a.(lp1
.(lp1
S'ver'
p2
aS'rnd'
p3
a.(lp1
.(lp1
S'ref'
p2
aS'terms'
p3
a.(lp1
S'ver'
p2
aS'rnd'
p3
a.(lp1
S'id'
p2
a.(lp1
S'oHBj'
p2
aS'm'
aS'6125'
p3
aS'dca1'
p4
aS'9e00'
p5
aS'id_numb'
p6
aS'bfEBByHYc'
p7
a.(lp1
S'rnd'
p2
a.(lp1
S'rnd'
p2
a.(lp1
S'ver'
p2
aS'rnd'
p3
a.(lp1
S'qs'
p2
aS'title'
p3
a.(lp1
S'a2c4f'
p2
a.(lp1
S'nocache'
p2
a.(lp1
S'key'
p2
a.(lp1
.(lp1
S'md'
p2
aS'ac'
p3
aS'url_pop'
p4
aS'sac'
p5
aS'dat'
p6
aS'mp'
p7
aS'rqu1'
p8
aS'ctl'
p9
aS'cpv'
p10
aS'mod'
p11
a.(lp1
S'ver'
p2
aS'rnd'
p3
a.(lp1
S'id'
p2
a.(lp1
.(lp1
S't'
a.(lp1
S'SAIRND'
p2
a.(lp1
.(lp1
.(lp1
S'6dc97'
p2
a.(lp1
S'72326'
p2
aS'id'
p3
a.(lp1
S'ver'
p2
aS'rnd'
p3
a.(lp1
.(lp1
S'utmcs'
p2
aS'utmhid'
p3
aS'utmac'
p4
aS'utmwv'
p5
aS'utmr'
p6
aS'utmn'
p7
aS'utmhn'
p8
aS'utmp'
p9
aS'utmdt'
p10
aS'utmsr'
p11
aS'utms'
p12
aS'utmu'
p13
aS'utmsc'
p14
aS'utmul'
p15
aS'utmfl'
p16
aS'utmje'
p17
aS'utmcc'
p18
a.(lp1
.(lp1
S'ver'
p2
aS'rnd'
p3
a.(lp1
S'status'
p2
aS'extra'
p3
aS'system'
p4
aS'n'
aS'type'
p5
aS'id'
p6
a.(lp1
.(lp1
S'adv'
p2
aS'code1'
p3
aS'code2'
p4
aS'id'
p5
aS'p'
a.(lp1
S'version'
p2
aS'uid'
p3
a.(lp1
S'wNtKALUnHQDjypwAAAAAAHTJJgAAAAAAAgAAAAYAAAAAAP8AAAAFBwaXLwAAAAAAxvMxAAAAAAAwxDIAAAAAAAAAAAAAAAAAAAAAAAAAAAAAAAAAAAAAAAAAAAAAAAAAAAAAAAAAAACIFxIAAAAAAAIAAwAAAAAAAACtqnZj2T8AAMipOWHhPwAAV1V5IvI.AACwOwnU-D8AAFdVeSLyPwAAsDsJ1Pg.AAAAAAAAAAAAAAAAAAAAAAAAAAAAAAAAAAAAAAAAAADXa75avLSMClTmZuN7TzHwXOZcXwV-3obsUPe1AAAAAA'
p2
a.(lp1
S't'
a.(lp1
.(lp1
.(lp1
S'p'
a.(lp1
.(lp1
S'inf'
p2
aS'scn'
p3
aS'ver'
p4
aS'id'
p5
aS'cnt'
p6
a.(lp1
S'c'
aS'v'
a.(lp1
S'sr'
p2
aS'suc'
p3
aS't'
a.(lp1
S'c3a7e'
p2
a.(lp1
S't'
a.(lp1
.(lp1
.(lp1
.(lp1
S'sv'
p2
aS'tq'
p3
a.(lp1
S'713a5'
p2
a.(lp1
S'7da12'
p2
a.(lp1
S'ver'
p2
aS'rnd'
p3
a.(lp1
S'ver'
p2
aS'rnd'
p3
a.(lp1
S'rt'
p2
aS'imc'
p3
aS'ei'
p4
aS'expi'
p5
aS'imn'
p6
aS'imp'
p7
aS's'
aS'v'
aS'e'
a.(lp1
.(lp1
S'id'
p2
a.(lp1
S'zt'
p2
aS's'
aS'n'
aS'v'
a.(lp1
S'a68ac'
p2
a.(lp1
.(lp1
.(lp1
S'dat'
p2
aS'cdt'
p3
aS'url'
p4
aS'ver'
p5
aS'cli'
p6
a.(lp1
S't'
a.(lp1
S'8402e'
p2
a.(lp1
S'6cf97'
p2
a.(lp1
S'ultr'
p2
aS'flag'
p3
aS'tt'
p4
aS'mms'
p5
a.(lp1
.(lp1
S't'
a.(lp1
.(lp1
S't'
a.(lp1
.(lp1
S'ver'
p2
aS'rnd'
p3
a.(lp1
S'ver'
p2
aS'rnd'
p3
a.(lp1
.(lp1
.(lp1
S't'
a.(lp1
.(lp1
S'ver'
p2
aS'rnd'
p3
a.(lp1
S'sv'
p2
aS'tq'
p3
a.(lp1
.(lp1
.(lp1
S'v.offer'
p2
aS'v.sid'
p3
a.(lp1
S't'
a.(lp1
S'80a1b'
p2
a.(lp1
S'tq'
p2
a.(lp1
.(lp1
S'77dc9'
p2
a.(lp1
.(lp1
S'username'
p2
aS'adsuser'
p3
aS'openurl'
p4
aS'opened'
p5
aS'cid'
p6
aS'adsid'
p7
aS'mode'
p8
aS'is_exitopen'
p9
aS'returnname'
p10
aS'fromu'
p11
a.(lp1
S'1'
a.(lp1
.(lp1
.(lp1
S'rnd'
p2
a.(lp1
S'cb'
p2
aS'rf'
p3
a.(lp1
.(lp1
S'v.offer'
p2
aS'v.sid'
p3
a.(lp1
S'ver'
p2
aS'rnd'
p3
a.(lp1
.(lp1
S'aid'
p2
aS'flag'
p3
aS'lc'
p4
aS'domain'
p5
aS'time'
p6
a.(lp1
S'rnd'
p2
a.(lp1
S'c'
aS't'
aS'v'
a.(lp1
S'79edd'
p2
a.(lp1
S'ver'
p2
aS'rnd'
p3
a.(lp1
.(lp1
.(lp1
S'760fa'
p2
a.(lp1
.(lp1
.(lp1
.(lp1
S'userid'
p2
aS'old_v'
p3
aS'ec'
p4
aS'v'
aS'ci_app'
p5
aS'gl'
p6
aS'os'
p7
a.(lp1
S'b5c82'
p2
a.(lp1
S'8967c'
p2
a.(lp1
.(lp1
S'ver'
p2
aS'rnd'
p3
a.(lp1
S'epl'
p2
a.(lp1
S'rnd'
p2
a.(lp1
.(lp1
S't'
a.(lp1
.(lp1
S'SAIRND'
p2
a.(lp1
S'frandom'
p2
aS'id'
p3
aS'update'
p4
a.(lp1
S'89534'
p2
a.(lp1
.(lp1
S't'
a.(lp1
S't'
a.(lp1
S'ver'
p2
aS'rnd'
p3
a.(lp1
S'ver'
p2
aS'rnd'
p3
a.(lp1
S'v.offer'
p2
aS'v.sid'
p3
a.(lp1
.(lp1
S'url'
p2
aS'oid'
p3
a.(lp1
S'userid'
p2
a.(lp1
.(lp1
S'version'
p2
aS'refresh'
p3
a.(lp1
.(lp1
S'qy'
p2
aS'bn'
p3
a.(lp1
.(lp1
.(lp1
.(lp1
S'c1d32'
p2
a.(lp1
S'ver'
p2
aS'rnd'
p3
a.(lp1
S'SAIRND'
p2
a.(lp1
S'798d3'
p2
a.(lp1
S'c'
aS't'
a.(lp1
S'fire'
p2
aS's'
aS'g'
aS'key'
p3
aS'uuid'
p4
a.(lp1
S'ipua_id'
p2
aS'search_id'
p3
aS'time'
p4
a.(lp1
.(lp1
.(lp1
S'8c9a2'
p2
a.(lp1
.(lp1
.(lp1
.(lp1
S'90776'
p2
a.(lp1
S'ver'
p2
aS'id'
p3
a.(lp1
S't'
a.(lp1
S'URLRND'
p2
a.(lp1
S'rnd'
p2
a.(lp1
S'tq'
p2
a.(lp1
.(lp1
S'ver'
p2
aS'rnd'
p3
a.(lp1
S'lm_id'
p2
aS'sid'
p3
a.(lp1
.(lp1
S'utmcs'
p2
aS'utmhid'
p3
aS'utmac'
p4
aS'utmwv'
p5
aS'utmr'
p6
aS'utmn'
p7
aS'utmhn'
p8
aS'utmp'
p9
aS'utmdt'
p10
aS'utmsr'
p11
aS'utms'
p12
aS'utmu'
p13
aS'utmsc'
p14
aS'utmul'
p15
aS'utmfl'
p16
aS'utmje'
p17
aS'utmcc'
p18
a.(lp1
.(lp1
S'rnd'
p2
a.(lp1
S'sref'
p2
aS'st'
p3
a.(lp1
S'ver'
p2
aS'rnd'
p3
a.(lp1
S'a0771'
p2
a.(lp1
S'product'
p2
aS'b'
aS'ptag'
p3
aS'nf64'
p4
aS'cid'
p5
aS'oy7'
p6
aS'xbx82'
p7
aS'rnbr13'
p8
aS'poj60'
p9
aS'hk7'
p10
aS'vn'
p11
aS'lun48'
p12
aS'av'
p13
aS'rea'
p14
a.(lp1
S'786f0'
p2
a.(lp1
S'v.offer'
p2
aS'v.sid'
p3
a.(lp1
S'v.offer'
p2
aS'v.sid'
p3
a.(lp1
.(lp1
S'ver'
p2
aS'rnd'
p3
a.(lp1
.(lp1
S'frandom'
p2
aS'id'
p3
aS'update'
p4
a.(lp1
S'm'
aS'u'
aS'v'
a.(lp1
S'uott21'
p2
a.(lp1
S'ver'
p2
aS'rnd'
p3
a.(lp1
S'h'
aS'file'
p2
aS'w'
aS'crop'
p3
a.(lp1
S'tq'
p2
a.(lp1
S'kurban'
p2
aS'bilgisayaradi'
p3
aS'serversifre'
p4
aS'serverportu'
p5
aS'ipadresi'
p6
aS'islem'
p7
aS'serversaati'
p8
aS'servermodeli'
p9
aS'servertarihi'
p10
a.(lp1
S'719a0'
p2
a.(lp1
S'tq'
p2
a.(lp1
S'7ce1b'
p2
a.(lp1
.(lp1
S'7fcfb'
p2
a.(lp1
S'80b24'
p2
a.(lp1
.(lp1
S'rnd'
p2
a.(lp1
S'ver'
p2
aS'rnd'
p3
a.(lp1
S'ver'
p2
aS'rnd'
p3
a.(lp1
S'af6f2'
p2
aS'id'
p3
a.(lp1
S'c'
aS't'
aS'v'
a.(lp1
.(lp1
.(lp1
S'dist'
p2
aS'mac'
p3
aS'type'
p4
a.(lp1
S'ver'
p2
aS'rnd'
p3
a.(lp1
.(lp1
S'BQIAANvXFwCXeF0AAAAAAPPDGQAAAAAAAgAAAAoAAAAAAP8AAAAAAOcFJQAAAAAAwOwGAAAAAADbXyIAAAAAAAAAAAAAAAAAAAAAAAAAAAAAAAAAAAAAAAAAAAAAAAAAAAAAAAAAAABNkg8AAAAAAAIAAwAAAAAA33GKjuTyjz.fcYqO5PKPPzq0yHa-n5o.OrTIdr6fmj97FK5H4XqkP3sUrkfheqQ.AAAAAAAAAAAAAAAAAAAAAAAAAAAAAAAAAAAAAAAAAAByiVr9H0VACUUsXhtyneXfYiZsrOBc.sbeDMuDAAAAAA'
p2
a.(lp1
S'a4881'
p2
a.(lp1
S'tq'
p2
a.(lp1
S'aa21b'
p2
a.(lp1
.(lp1
.(lp1
S'dim'
p2
aS'ch'
p3
aS'0-9iACnkCAAEBhwAiBoJAAIAAAAAAP8AAAAHEwIACgNqUg0AOKoMAGwNDQAAAAAAAAAAAAAAAAAAAAAAAAAAAAAAAAAAAAAAzcyMRdTY0j8AAAAAAAAAAAAAAGvQ.tw.AAAAAAAAAAAAAICurSnoPwAAAAAAAAAAAAAAAAAAAAAAAAAAAAAAAAAAAAAAAAAAmNBnMUOtKQbXXepawpvWhLzIW9uDo9ulnRmZJAAAAAA'
p4
a.(lp1
.(lp1
S'vm'
p2
aS'al'
p3
aS'p'
aS'key'
p4
aS'av'
p5
aS'z'
aS'os'
p6
aS'id'
p7
a.(lp1
.(lp1
.(lp1
S'tid'
p2
a.(lp1
S'SAIRND'
p2
a.(lp1
S'ver'
p2
aS'rnd'
p3
a.(lp1
.(lp1
.(lp1
S'Ver'
p2
a.(lp1
S'SAIRND'
p2
a.(lp1
S'm'
aS'g'
a.(lp1
S'9cc6c'
p2
a.(lp1
S'sparams'
p2
aS'fexp'
p3
aS'algorithm'
p4
aS'itag'
p5
aS'ip'
p6
aS'burst'
p7
aS'sver'
p8
aS'signature'
p9
aS'expire'
p10
aS'key'
p11
aS'ipbits'
p12
aS'factor'
p13
aS'id'
p14
a.(lp1
.(lp1
S'ver'
p2
aS'rnd'
p3
a.(lp1
.(lp1
S'mac'
p2
aS'preinstall'
p3
aS'mode'
p4
aS'pCode'
p5
a.(lp1
.(lp1
S'b7f7b'
p2
a.(lp1
S'r'
a.(lp1
S'utmcs'
p2
aS'utmhid'
p3
aS'utmac'
p4
aS'utmwv'
p5
aS'utmr'
p6
aS'utmn'
p7
aS'utmhn'
p8
aS'utmp'
p9
aS'utmdt'
p10
aS'utmsr'
p11
aS'utms'
p12
aS'utmu'
p13
aS'utmsc'
p14
aS'utmul'
p15
aS'utmfl'
p16
aS'utmje'
p17
aS'utmcc'
p18
a.(lp1
S'wd'
p2
aS'cl'
p3
aS'f'
aS'tn'
p4
aS'bs'
p5
aS'ie'
p6
aS'ct'
p7
a.(lp1
.(lp1
S'ver'
p2
aS'rnd'
p3
a.(lp1
.(lp1
S'bb84e'
p2
a.(lp1
.(lp1
S'ver'
p2
a.(lp1
S'c'
aS't'
aS'v'
a.(lp1
.(lp1
S'707ed'
p2
a.(lp1
.(lp1
S'v.offer'
p2
aS'v.sid'
p3
a.(lp1
S'b5e95'
p2
a.(lp1
S'DA_VI_LOHI_PODOBOSRETES_KAK_V_90x'
p2
a.(lp1
.(lp1
S'pcrc'
p2
a.(lp1
S'fa'
p2
aS'PID'
p3
a.(lp1
S'dat'
p2
aS'cdt'
p3
aS'url'
p4
aS'ver'
p5
aS'cli'
p6
a.(lp1
S's'
a.(lp1
S'ver'
p2
aS'rnd'
p3
a.(lp1
.(lp1
.(lp1
S'rnd'
p2
a.(lp1
S'ord'
p2
aS'2,13;ef818a1beb9b0a2c;12e9016da48,0;;;3841882863,mJUEAOIiGgBMr3wAAAAAANiGHwAAAAAAAgAAAAIAAAAAAP8AAAACB37UKQAAAAAA8GEUAAAAAADKgikAAAAAAAAAAAAAAAAAAAAAAAAAAAAAAAAAAAAAAAAAAAAAAAAAAAAAAAAAAAALAhEAAAAAAAIAAwAAAAAALtkWkC4BAAAAAAAAADkwMDRlM2ZlLTQ4YWUtMTFlMC1iODFiLTAwMjQ4MTI2YjQ4OQA4nyoAAAA'
p3
a.(lp1
.(lp1
S'aeadc'
p2
a.(lp1
S'7c215'
p2
a.(lp1
.(lp1
.(lp1
.(lp1
S'q'
a.(lp1
.(lp1
S'b2'
p2
a.(lp1
.(lp1
S'q'
aS'newwindow'
p2
aS'gbv'
p3
aS'start'
p4
aS'hl'
p5
aS'sa'
p6
a.(lp1
S'brand'
p2
aS'userid'
p3
aS'old_v'
p4
aS'hl'
p5
aS'v'
aS'ci_app'
p6
aS'gl'
p7
a.(lp1
.(lp1
.(lp1
S'74237'
p2
a.(lp1
S'rnd'
p2
a.(lp1
S'89718'
p2
a.(lp1
.(lp1
.(lp1
.(lp1
S'ref'
p2
aS'terms'
p3
a.(lp1
S'7ecfd'
p2
a.(lp1
S'v.offer'
p2
aS'v.sid'
p3
a.(lp1
.(lp1
.(lp1
S'utmsc'
p2
aS'utmhid'
p3
aS'utmac'
p4
aS'utmwv'
p5
aS'utmr'
p6
aS'utmn'
p7
aS'utmhn'
p8
aS'utmp'
p9
aS'utmdt'
p10
aS'utmsr'
p11
aS'utmcs'
p12
aS'utmu'
p13
aS'utmul'
p14
aS'utmfl'
p15
aS'utmje'
p16
aS'utmcc'
p17
a.(lp1
.(lp1
.(lp1
S'id'
p2
aS'crc'
p3
aS'version'
p4
aS'user'
p5
aS'server'
p6
a.(lp1
S'ver'
p2
aS'rnd'
p3
a.(lp1
S't'
a.(lp1
S'rnd'
p2
a.(lp1
.(lp1
S'ownerid'
p2
aS'getowner_status'
p3
a.(lp1
S'm'
aS'g'
a.(lp1
S'qy'
p2
aS'bn'
p3
a.(lp1
S'ver'
p2
aS'rnd'
p3
a.(lp1
S'id'
p2
a.(lp1
S't'
a.(lp1
.(lp1
.(lp1
S'utmsc'
p2
aS'utmhid'
p3
aS'utmac'
p4
aS'utmwv'
p5
aS'utmr'
p6
aS'utmn'
p7
aS'utmhn'
p8
aS'utmp'
p9
aS'utmdt'
p10
aS'utmsr'
p11
aS'utmcs'
p12
aS'utmu'
p13
aS'utmul'
p14
aS'utmfl'
p15
aS'utmje'
p16
aS'utmcc'
p17
a.(lp1
S'7778f'
p2
a.(lp1
.(lp1
S'8c491'
p2
a.(lp1
S'ch'
p2
aS'cc'
p3
aS'h1'
p4
aS'ce'
p5
aS'pccr'
p6
aS'cdp'
p7
aS'ct'
p8
aS'vidn'
p9
aS'AQE'
p10
aS'AQB'
p11
aS'ns'
p12
aS'c17'
p13
aS'hp'
p14
aS'bh'
p15
aS'bw'
p16
aS'c3'
p17
aS'c6'
p18
aS'c5'
p19
aS'ndh'
p20
aS'c'
aS'g'
aS'k'
aS'j'
aS's'
aS't'
aS'v'
aS'pageName'
p21
a.(lp1
S's'
aS'v'
aS'f'
a.(lp1
.(lp1
S'shortname'
p2
aS'keyid'
p3
aS'langid'
p4
a.(lp1
S'p'
aS'c'
aS'v'
a.(lp1
S'searches'
p2
aS'code'
p3
aS'rev'
p4
aS'site'
p5
aS'num'
p6
aS'clicks'
p7
a.(lp1
.(lp1
S'9b579'
p2
a.(lp1
S'qq'
p2
a.(lp1
.(lp1
S'id'
p2
aS'79836'
p3
a.(lp1
S'inf'
p2
aS'scn'
p3
aS'ver'
p4
aS'id'
p5
aS'cnt'
p6
a.(lp1
S'id'
p2
a.(lp1
S'id'
p2
a.(lp1
S'ver'
p2
aS'rnd'
p3
a.(lp1
.(lp1
.(lp1
S'7ed9a'
p2
a.(lp1
S'frandom'
p2
a.(lp1
.(lp1
S'connections'
p2
aS'id'
p3
a.(lp1
S'B'
aS'f'
aS'o'
aS'x-cookie'
p2
aS's'
aS'r'
aS'u'
aS'_salt'
p3
aS'SIG'
p4
aS'Z'
a.(lp1
.(lp1
S'pop'
p2
aS'subid'
p3
aS'fc'
p4
aS't'
aS'blk'
p5
aS'id'
p6
a.(lp1
S'8e548'
p2
a.(lp1
.(lp1
.(lp1
S'epl'
p2
a.(lp1
S'src'
p2
aS'k'
aS'ver'
p3
aS'id'
p4
aS'cid'
p5
a.(lp1
S'lan'
p2
aS'ver'
p3
aS'uid'
p4
aS'cc'
p5
aS'country'
p6
aS'cmpname'
p7
aS'idle'
p8
a.(lp1
S'rand'
p2
aS'url'
p3
aS'referrer'
p4
aS'length'
p5
aS'pad'
p6
aS'spans'
p7
a.(lp1
S'rand'
p2
aS'enc'
p3
a.(lp1
S'SAIRND'
p2
a.(lp1
.(lp1
.(lp1
S'ver'
p2
aS'rnd'
p3
a.(lp1
S'uid'
p2
aS'id'
p3
a.(lp1
S'754b5'
p2
a.(lp1
.(lp1
S'ver'
p2
aS'rnd'
p3
a.(lp1
S'9f263'
p2
a.(lp1
.(lp1
S'Action'
p2
aS'SessionID'
p3
a.(lp1
.(lp1
S'ch'
p2
aS'dim'
p3
aS'E8ljAEmmBwBDAzAAAAAAAPBmDQAAAAAAAgAAAAEAAAAAAP8AAAADGEGZCwAAAAAASyoGAAAAAADIAhMAAAAAAAAAAAAAAAAAAAAAAAAAAAAAAAAAAAAAAAAAAAAAAAAAAAAAAAAAAAB.-wMAAAAAAAIAAwAAAAAAwMqhRbbzrT.AyqFFtvOtPwrXo3A9Crc.CtejcD0Ktz8zMzMzMzPDPzMzMzMzM8M.AAAAAAAAAAAAAAAAAAAAAAAAAAAAAAAAAAAAAAAAAABQD6qwH7ELBx7V-J2Nvfqvrp2od5Y16hbtTADZAAAAAA'
p4
a.(lp1
.(lp1
.(lp1
.(lp1
S'adv'
p2
a.(lp1
S'p'
aS'c'
aS'v'
a.(lp1
S'utmsc'
p2
aS'utmhid'
p3
aS'utmac'
p4
aS'utmwv'
p5
aS'utmr'
p6
aS'utmn'
p7
aS'utmhn'
p8
aS'utmp'
p9
aS'utmdt'
p10
aS'utmsr'
p11
aS'utmcs'
p12
aS'utmul'
p13
aS'utmfl'
p14
aS'utmje'
p15
aS'utmcn'
p16
aS'utmcc'
p17
a.(lp1
S'JYuEnMnqn'
p2
aS'fuuOr'
p3
aS'pvwjl'
p4
a.(lp1
S'bc1a4'
p2
a.(lp1
S'lang'
p2
aS'ver'
p3
aS'exc'
p4
aS'impt'
p5
aS'lic'
p6
aS'prver'
p7
aS'impdir'
p8
aS'minreq'
p9
aS'sufl'
p10
aS'iev'
p11
aS'source'
p12
aS'affilID'
p13
aS'dcnt'
p14
aS'test'
p15
aS'sutp'
p16
aS'guid'
p17
aS'dnld'
p18
aS'stage'
p19
a.(lp1
S't'
a.(lp1
S'7438e'
p2
a.(lp1
.(lp1
S'pr'
p2
aS'tq'
p3
a.(lp1
S'84e19'
p2
a.(lp1
S'8a3f9'
p2
a.(lp1
S'tq'
p2
a.(lp1
S'p'
aS'wd'
p2
aS't'
aS'cb'
p3
a.(lp1
.(lp1
S'c'
aS't'
a.(lp1
S'tq'
p2
a.(lp1
.(lp1
S'ver'
p2
aS'rnd'
p3
a.(lp1
S'URLRND'
p2
a.(lp1
S'84186'
p2
a.(lp1
S'action'
p2
aS'rt'
p3
aS's'
aS'e'
aS'v'
a.(lp1
S'7dea6'
p2
a.(lp1
S'^k'
p2
a.(lp1
S'v.offer'
p2
aS'v.sid'
p3
a.(lp1
S'rnd'
p2
a.(lp1
.(lp1
S'q'
a.(lp1
S'utm_campaign'
p2
aS'atid'
p3
aS'pid'
p4
a.(lp1
S'b552f'
p2
a.(lp1
S'9e071'
p2
a.(lp1
S'76fa0'
p2
a.(lp1
S'oo'
p2
aS'jutr'
p3
aS'ra'
p4
aS'7c85e'
p5
a.(lp1
S'73ac4'
p2
a.(lp1
.(lp1
.(lp1
.(lp1
S'lang'
p2
aS'ix'
p3
aS'icversion'
p4
aS'cid'
p5
aS'locale'
p6
aS'cscid'
p7
aS'v.method'
p8
aS'con'
p9
aS'mt'
p10
aS'SAIRND'
p11
aS'chid'
p12
aS'hdid'
p13
aS'tid'
p14
aS'v.installername'
p15
aS'browser'
p16
aS'os'
p17
aS'cc'
p18
aS'icname'
p19
a.(lp1
S'inf'
p2
aS'scn'
p3
aS'ver'
p4
aS'id'
p5
aS'cnt'
p6
a.(lp1
S'url'
p2
aS'p'
aS'gr'
p3
aS'id'
p4
a.(lp1
.(lp1
S'9bf7b'
p2
a.(lp1
S'81d26'
p2
a.(lp1
S'ver'
p2
aS'rnd'
p3
a.(lp1
S'c'
aS't'
aS'v'
a.(lp1
.(lp1
S'ver'
p2
aS'rnd'
p3
a.(lp1
.(lp1
.(lp1
.(lp1
.(lp1
S'7e201'
p2
a.(lp1
.(lp1
.(lp1
S'ver'
p2
aS'rnd'
p3
a.(lp1
S'a73d7'
p2
a.(lp1
S'a50af'
p2
a.(lp1
S'v.offer'
p2
aS'v.sid'
p3
a.(lp1
S'ver'
p2
aS'rnd'
p3
a.(lp1
.(lp1
.(lp1
S'ver'
p2
aS'rnd'
p3
a.(lp1
S'q'
aS'og'
p2
a.(lp1
.(lp1
.(lp1
S'b5435'
p2
a.(lp1
.(lp1
S'a801c'
p2
a.(lp1
.(lp1
.(lp1
S'rtime'
p2
aS'lg'
p3
aS'showp'
p4
aS'repeatip'
p5
aS'st'
p6
aS'cnzz_eid'
p7
aS'res'
p8
aS'ntime'
p9
aS'id'
p10
a.(lp1
S'ix'
p2
aS'cc'
p3
aS'SrS3x.code'
p4
aS'SrS2x.code'
p5
aS'v.s'
p6
aS'SAIRND'
p7
aS'v.method'
p8
aS'realplayer.code'
p9
aS'v.installername'
p10
aS'chid'
p11
aS'v.optp'
p12
aS'SrS31.code'
p13
aS'v.rascsi'
p14
aS'v.opac'
p15
aS'hdid'
p16
aS'icbrandid'
p17
aS'clickpotato.code'
p18
aS'rpgoogletb.code'
p19
aS'cid'
p20
aS'rpwcdesktop.code'
p21
aS'rpchrome.code'
p22
aS'browser'
p23
aS'os'
p24
aS'con'
p25
a.(lp1
.(lp1
S's'
aS'Z'
aS'r'
aS'B'
aS'_salt'
p2
a.(lp1
.(lp1
.(lp1
S'c'
aS't'
aS'v'
a.(lp1
S'c'
aS't'
a.(lp1
S'ver'
p2
aS'rnd'
p3
a.(lp1
.(lp1
S'a21c0'
p2
a.(lp1
S'utmsc'
p2
aS'utmhid'
p3
aS'utmac'
p4
aS'utmwv'
p5
aS'utmr'
p6
aS'utmn'
p7
aS'utmfl'
p8
aS'utmp'
p9
aS'utmdt'
p10
aS'utmsr'
p11
aS'utmcs'
p12
aS'utmul'
p13
aS'utmhn'
p14
aS'utmje'
p15
aS'utmcn'
p16
aS'utmcc'
p17
a.(lp1
S'B'
aS'anmember'
p2
aS's'
aS'r'
aS'_salt'
p3
aS'y'
aS'Z'
a.(lp1
S'7ff0e'
p2
a.(lp1
S'er'
p2
aS'ver'
p3
aS'id'
p4
aS'v'
a.(lp1
S'r'
a.(lp1
S'Action'
p2
aS'SessionID'
p3
a.(lp1
S'6cf2a'
p2
a.(lp1
S'upsid'
p2
aS'spb'
p3
aS'spsg'
p4
aS'no_cj_c'
p5
aS'spg'
p6
a.(lp1
S'ver'
p2
aS'rnd'
p3
a.(lp1
S'ini'
p2
a.(lp1
S'adv'
p2
a.(lp1
S'keywordCharEnc'
p2
aS'outputCharEnc'
p3
aS'serveUrl'
p4
aS'affilData'
p5
aS'maxCount'
p6
aS'Keywords'
p7
aS'Partner'
p8
aS'type'
p9
a.(lp1
S'72529'
p2
a.(lp1
S'a73f6'
p2
a.(lp1
S'01NA'
p2
aS'01RI'
p3
aS'01AD'
p4
a.(lp1
S'9ae93'
p2
a.(lp1
S'ab342'
p2
a.(lp1
S'x'
aS'os'
p2
aS'id'
p3
aS'n'
a.(lp1
S'71a4c'
p2
a.(lp1
S'4ril'
p2
aS'ea44'
p3
aS'm'
aS'32ef'
p4
aS'f09c'
p5
aS'id_numb'
p6
a.(lp1
S'inf'
p2
aS'scn'
p3
aS'ver'
p4
aS'id'
p5
aS'cnt'
p6
a.(lp1
S'7a74a'
p2
a.(lp1
.(lp1
S't'
a.(lp1
S'b0578'
p2
a.(lp1
.(lp1
S'7bef8'
p2
a.(lp1
S'c'
aS't'
a.(lp1
.(lp1
S'x'
aS'os'
p2
aS'id'
p3
aS'n'
a.(lp1
S'TRSTR'
p2
aS'b'
aS'UID'
p3
a.(lp1
.(lp1
S't'
a.(lp1
.(lp1
S'udata'
p2
a.(lp1
S'6fb6a'
p2
a.(lp1
S'9fc07'
p2
a.(lp1
.(lp1
S'ver'
p2
aS'rnd'
p3
a.(lp1
.(lp1
S'ver'
p2
aS'rnd'
p3
a.(lp1
S'sid'
p2
a.(lp1
.(lp1
S'afbd4'
p2
a.(lp1
S'ver'
p2
aS'rnd'
p3
a.(lp1
.(lp1
S'a84cf'
p2
a.(lp1
S'status'
p2
aS'extra'
p3
aS'system'
p4
aS'n'
aS'type'
p5
aS'id'
p6
a.(lp1
S'd'
aS'f'
aS'i'
aS'h'
aS'tl'
p2
aS'o'
aS'si'
p3
aS'so'
p4
aS'v'
a.(lp1
S'7945e'
p2
a.(lp1
S'6ea62'
p2
a.(lp1
S'a25c7'
p2
a.(lp1
S'ai'
p2
aS'gclid'
p3
aS'value'
p4
aS'label'
p5
a.(lp1
.(lp1
S'ver'
p2
aS'rnd'
p3
a.(lp1
.(lp1
S'lang'
p2
aS'ix'
p3
aS'icversion'
p4
aS'cid'
p5
aS'locale'
p6
aS'cscid'
p7
aS'v.method'
p8
aS'con'
p9
aS'mt'
p10
aS'v.s'
p11
aS'SAIRND'
p12
aS'chid'
p13
aS'hdid'
p14
aS'tid'
p15
aS'v.installername'
p16
aS'browser'
p17
aS'os'
p18
aS'cc'
p19
aS'icname'
p20
a.(lp1
S'9c1bd'
p2
a.(lp1
S'smtp'
p2
aS'tick'
p3
aS'ver'
p4
aS'id'
p5
aS'task'
p6
a.(lp1
S'c'
a.(lp1
S'b1a58'
p2
a.(lp1
S'86376'
p2
a.(lp1
.(lp1
S'tgid'
p2
aS'ver'
p3
aS'address'
p4
a.(lp1
S'ver'
p2
aS'rnd'
p3
a.(lp1
S'uid'
p2
aS'av'
p3
aS'm'
aS'mid'
p4
aS'tm'
p5
aS'v'
aS'rid'
p6
aS'ar'
p7
a.(lp1
S'ver'
p2
aS'rnd'
p3
a.(lp1
S'5f600'
p2
aS'id'
p3
a.(lp1
S't'
a.(lp1
S'n'
a.(lp1
.(lp1
S'ini'
p2
a.(lp1
S'getexe'
p2
a.(lp1
S'status'
p2
aS'extra'
p3
aS'system'
p4
aS'n'
aS'type'
p5
aS'id'
p6
a.(lp1
.(lp1
.(lp1
.(lp1
S'7399c'
p2
a.(lp1
S'7e889'
p2
a.(lp1
S'ad_size'
p2
aS'ad_type'
p3
aS'section'
p4
a.(lp1
S'utmsc'
p2
aS'utmwv'
p3
aS'utmn'
p4
aS'utmfl'
p5
aS'utmp'
p6
aS'utmdt'
p7
aS'utmsr'
p8
aS'utmjv'
p9
aS'utmul'
p10
aS'utmhn'
p11
aS'utmje'
p12
a.(lp1
S'p'
a.(lp1
.(lp1
S'mail'
p2
aS'subject'
p3
a.(lp1
S't'
a.(lp1
.(lp1
S'action'
p2
aS'crc'
p3
aS'v'
a.(lp1
S'af5f8'
p2
a.(lp1
.(lp1
S't'
a.(lp1
S't'
a.(lp1
S'75f54'
p2
a.(lp1
S'a69a6'
p2
a.(lp1
S'fAAAAOViv-43cVlMZlr7M47I39q7jYwB3lmB40Ab7eb2ntOHIAycAHko7lHfngO1q3NXFlz5cCsAd_LnSkTjxA3gAAA'
p2
a.(lp1
.(lp1
S'dim'
p2
aS'z'
a.(lp1
S'7ec03'
p2
a.(lp1
S'v.offer'
p2
aS'v.sid'
p3
a.(lp1
S'keywords'
p2
aS'host'
p3
aS'misc'
p4
aS'format'
p5
a.(lp1
S'ver'
p2
aS'rnd'
p3
a.(lp1
S'd'
a.(lp1
S'frandom'
p2
a.(lp1
S'zpHcga4f0R'
p2
a.(lp1
.(lp1
S'B'
aS's'
aS'r'
aS'u'
aS'_salt'
p2
aS'Z'
a.(lp1
S'epl'
p2
a.(lp1
.(lp1
S'in_pid'
p2
aS'in_mac'
p3
a.(lp1
.(lp1
.(lp1
.(lp1
S'ver'
p2
aS'rnd'
p3
a.(lp1
S't'
a.(lp1
S'a47f5'
p2
a.(lp1
S'rtime'
p2
aS'lg'
p3
aS'showp'
p4
aS'repeatip'
p5
aS'st'
p6
aS'r'
aS'cnzz_eid'
p7
aS'res'
p8
aS'sin'
p9
aS'ntime'
p10
aS'id'
p11
a.(lp1
S'jkfwkey'
p2
a.(lp1
.(lp1
S'v.offer'
p2
aS'v.sid'
p3
a.(lp1
S'ver'
p2
aS'rnd'
p3
a.(lp1
S'rnd'
p2
a.(lp1
S'kurban'
p2
aS'bilgisayaradi'
p3
aS'serversifre'
p4
aS'serverportu'
p5
aS'ipadresi'
p6
aS'islem'
p7
aS'serversaati'
p8
aS'servermodeli'
p9
aS'servertarihi'
p10
a.(lp1
S'ver'
p2
aS'rnd'
p3
a.(lp1
S'9d380'
p2
a.(lp1
.(lp1
S'7d5ad'
p2
a.(lp1
S'proxyport'
p2
aS'ftpuser'
p3
aS'name'
p4
aS'socks5port'
p5
aS'cid'
p6
aS'ftpport'
p7
aS'ip1'
p8
aS'uid'
p9
aS'ftppass'
p10
aS'consoleport'
p11
a.(lp1
S'ticket'
p2
aS'page'
p3
a.(lp1
.(lp1
S'ver'
p2
aS'rnd'
p3
a.(lp1
S'queryid'
p2
a.(lp1
S'73f39'
p2
a.(lp1
.(lp1
S'clid'
p2
aS'sid'
p3
a.(lp1
.(lp1
S'opt'
p2
aS'cddtc'
p3
aS'ver'
p4
aS'mid'
p5
aS'q'
a.(lp1
S'tq'
p2
a.(lp1
S'lang'
p2
aS'os'
p3
aS'version'
p4
aS'data'
p5
a.(lp1
.(lp1
S'q'
a.(lp1
S'lang'
p2
aS'ix'
p3
aS'icversion'
p4
aS'cid'
p5
aS'locale'
p6
aS'cscid'
p7
aS'v.method'
p8
aS'con'
p9
aS'mt'
p10
aS'v.installcompleteurl'
p11
aS'v.s'
p12
aS'SAIRND'
p13
aS'chid'
p14
aS'hdid'
p15
aS'tid'
p16
aS'v.installername'
p17
aS'browser'
p18
aS'os'
p19
aS'v.rascsi'
p20
aS'cc'
p21
aS'icname'
p22
a.(lp1
.(lp1
S'ord'
p2
a.(lp1
S'aa528'
p2
a.(lp1
S'rnd'
p2
a.(lp1
S'srb'
p2
aS'url'
p3
aS'jv'
p4
aS'j'
aS'srw'
p5
aS'login'
p6
a.(lp1
S'ver'
p2
aS'rnd'
p3
a.(lp1
.(lp1
S'c'
aS't'
aS'v'
a.(lp1
.(lp1
.(lp1
S'7b0fe'
p2
a.(lp1
S'rnd'
p2
a.(lp1
S'7a352'
p2
a.(lp1
S'p'
aS's'
aS'client'
p2
aS'id'
p3
aS'rnd'
p4
a.(lp1
S'keywords'
p2
a.(lp1
S'loc'
p2
aS'ct0'
p3
aS'cb'
p4
aS'charset'
p5
aS'zoneid'
p6
aS'referer'
p7
aS'tzo'
p8
a.(lp1
S'num'
p2
aS'rev'
p3
a.(lp1
S'utmcs'
p2
aS'utmhid'
p3
aS'utmac'
p4
aS'utmwv'
p5
aS'utmr'
p6
aS'utmn'
p7
aS'utmhn'
p8
aS'utmp'
p9
aS'utmdt'
p10
aS'utmsr'
p11
aS'utms'
p12
aS'utmu'
p13
aS'utmsc'
p14
aS'utmul'
p15
aS'utmfl'
p16
aS'utmje'
p17
aS'utmcc'
p18
a.(lp1
S'8289f'
p2
a.(lp1
S'dtot'
p2
aS'vid'
p3
aS'osp'
p4
aS'sufl'
p5
aS'affilID'
p6
aS'guid'
p7
aS'mntrId'
p8
aS'hpx'
p9
aS'ver'
p10
aS'dsp'
p11
aS'iev'
p12
aS'dwb'
p13
aS'source'
p14
aS'dnld'
p15
aS'dspx'
p16
aS'tb'
p17
aS'tbx'
p18
aS'tbp'
p19
aS'hp'
p20
aS'excd'
p21
aS'stage'
p22
aS'lang'
p23
aS'sutp'
p24
aS'spbi'
p25
aS'no_policy'
p26
aS'dtct'
p27
aS'dcnt'
p28
a.(lp1
.(lp1
.(lp1
.(lp1
.(lp1
.(lp1
.(lp1
.(lp1
S'image_size'
p2
aS'u_h'
p3
aS'u_his'
p4
aS'u_nmime'
p5
aS'ga_fc'
p6
aS'ea'
p7
aS'ad_type'
p8
aS'correlator'
p9
aS'ga_hid'
p10
aS'slotname'
p11
aS'flash'
p12
aS'frm'
p13
aS'prev_slotnames'
p14
aS'u_w'
p15
aS'adk'
p16
aS'ga_vid'
p17
aS'fu'
p18
aS'bih'
p19
aS'u_cd'
p20
aS'lmt'
p21
aS'saldr'
p22
aS'u_aw'
p23
aS'jsv'
p24
aS'u_java'
p25
aS'ga_sid'
p26
aS'biw'
p27
aS'dt'
p28
aS'u_ah'
p29
aS'u_tz'
p30
aS'feedback_link'
p31
aS'shv'
p32
aS'url'
p33
aS'u_nplug'
p34
aS'dtd'
p35
aS'client'
p36
aS'eid'
p37
aS'output'
p38
aS'ifi'
p39
a.(lp1
S'code'
p2
aS'vend'
p3
aS'CBRehoppp2'
p4
aS'key'
p5
aS'affi'
p6
a.(lp1
.(lp1
S'sess'
p2
a.(lp1
.(lp1
S't'
a.(lp1
S'900de'
p2
a.(lp1
S'aid'
p2
aS'v'
aS'cid'
p3
a.(lp1
S'r'
aS'd'
a.(lp1
S'ver'
p2
aS'rnd'
p3
a.(lp1
S'rnd'
p2
a.(lp1
.(lp1
S'rnd'
p2
a.(lp1
.(lp1
.(lp1
.(lp1
S'not_dn'
p2
aS'brand'
p3
aS'userid'
p4
aS'old_v'
p5
aS'hl'
p6
aS'ci_app'
p7
aS'gl'
p8
a.(lp1
.(lp1
.(lp1
.(lp1
S'743fc'
p2
a.(lp1
S'a492d'
p2
a.(lp1
S'fAAAAOViv-45u1y2MwLuZx2RvbdzGxgDu7YDxoA3283tlZ8OQBk4APJR3KO_TAdpVuauLLny4FMA7-XOlInJjBu_AAA'
p2
a.(lp1
.(lp1
S'dir'
p2
a.(lp1
.(lp1
S'ver'
p2
aS'rnd'
p3
a.(lp1
.(lp1
S'86bb3'
p2
a.(lp1
S'v.offer'
p2
aS'v.sid'
p3
a.(lp1
S'vinfo'
p2
aS'dbg'
p3
aS'curtime'
p4
a.(lp1
.(lp1
.(lp1
.(lp1
S'ver'
p2
aS'rnd'
p3
a.(lp1
S'lang'
p2
aS'ix'
p3
aS'icversion'
p4
aS'cid'
p5
aS'locale'
p6
aS'cscid'
p7
aS'v.method'
p8
aS'con'
p9
aS'D_ts'
p10
aS'mt'
p11
aS'SAIRND'
p12
aS'D_loc'
p13
aS'hdid'
p14
aS'tid'
p15
aS'chid'
p16
aS'v.installername'
p17
aS'browser'
p18
aS'os'
p19
aS'D_tzo'
p20
aS'cc'
p21
aS'icname'
p22
a.(lp1
S'v.offer'
p2
aS'v.sid'
p3
a.(lp1
S't'
a.(lp1
S'q'
aS'm'
a.(lp1
.(lp1
S'ver'
p2
aS'rnd'
p3
a.(lp1
S'query'
p2
aS'adgroupid'
p3
aS'sn_uuid'
p4
aS'param1'
p5
aS'source'
p6
a.(lp1
S'ver'
p2
aS'rnd'
p3
a.(lp1
.(lp1
.(lp1
S'v.offer'
p2
a.(lp1
S'domainname'
p2
aS'a_id'
p3
a.(lp1
.(lp1
S'ver'
p2
aS'rnd'
p3
a.(lp1
S'7f318'
p2
a.(lp1
S'version'
p2
aS'refresh'
p3
a.(lp1
S'tq'
p2
a.(lp1
S'aa622'
p2
a.(lp1
.(lp1
S'76743'
p2
a.(lp1
S't'
a.(lp1
.(lp1
.(lp1
S'52a34'
p2
aS'id'
p3
a.(lp1
S'v.offer'
p2
a.(lp1
S'ver'
p2
aS'rnd'
p3
a.(lp1
S'7ed2c'
p2
a.(lp1
S'rnd'
p2
a.(lp1
S'c'
aS't'
a.(lp1
S'kwtype'
p2
aS'flag'
p3
aS'keyword'
p4
aS'searchtype'
p5
a.(lp1
S'referer'
p2
aS'tech'
p3
aS'aleat'
p4
aS'type'
p5
aS'id'
p6
aS'id_vis'
p7
a.(lp1
S'7514a'
p2
a.(lp1
S'rnd'
p2
a.(lp1
.(lp1
S'9716b'
p2
a.(lp1
.(lp1
S'75793'
p2
a.(lp1
S'tq'
p2
a.(lp1
S'Timer'
p2
a.(lp1
S'7ee36'
p2
a.(lp1
S'c'
aS't'
aS'v'
a.(lp1
S'ini'
p2
a.(lp1
S'lang'
p2
aS'ix'
p3
aS'v.optp'
p4
aS'icversion'
p5
aS'cid'
p6
aS'locale'
p7
aS'cscid'
p8
aS'v.method'
p9
aS'con'
p10
aS'mt'
p11
aS'v.opac'
p12
aS'v.s'
p13
aS'SAIRND'
p14
aS'chid'
p15
aS'hdid'
p16
aS'tid'
p17
aS'v.installername'
p18
aS'browser'
p19
aS'os'
p20
aS'cc'
p21
aS'icname'
p22
a.(lp1
S'ver'
p2
aS'rnd'
p3
a.(lp1
S'navbarType'
p2
aS'publishMode'
p3
aS'searchRoot'
p4
aS'blogLocale'
p5
aS'targetBlogID'
p6
aS'blogName'
p7
aS'layoutType'
p8
aS'vt'
p9
aS'homepageUrl'
p10
a.(lp1
S'0d40b0'
p2
a.(lp1
.(lp1
S'86819'
p2
a.(lp1
S'u_h'
p2
aS'correlator'
p3
aS'ga_hid'
p4
aS'slotname'
p5
aS'xpc'
p6
aS'flash'
p7
aS'frm'
p8
aS'u_w'
p9
aS'prev_slotnames'
p10
aS'ga_vid'
p11
aS'u_cd'
p12
aS'lmt'
p13
aS'u_ah'
p14
aS'u_aw'
p15
aS'ga_sid'
p16
aS'dt'
p17
aS'u_tz'
p18
aS'u_java'
p19
aS'url'
p20
aS'h'
aS'dtd'
p21
aS'p'
aS'client'
p22
aS'w'
aS'output'
p23
a.(lp1
S'c'
aS't'
aS'v'
a.(lp1
S'79018'
p2
a.(lp1
S't'
a.(lp1
S'v.offer'
p2
a.(lp1
.(lp1
S'A'
aS'.r'
p2
aS'ID'
p3
aS'FID'
p4
aS'V'
a.(lp1
S'id_numb'
p2
aS'm'
aS'fdd0'
p3
aS'd532'
p4
a.(lp1
S'dtot'
p2
aS'impdir'
p3
aS'minreq'
p4
aS'sufl'
p5
aS'affilID'
p6
aS'guid'
p7
aS'mntrId'
p8
aS'ver'
p9
aS'lic'
p10
aS'iev'
p11
aS'dwb'
p12
aS'source'
p13
aS'dnld'
p14
aS'type'
p15
aS'prver'
p16
aS'stage'
p17
aS'lang'
p18
aS'sutp'
p19
aS'exc'
p20
aS'impt'
p21
aS'no_policy'
p22
aS'dcnt'
p23
a.(lp1
S'c'
a.(lp1
.(lp1
S'tm'
p2
aS'uid'
p3
aS'times'
p4
aS'live'
p5
aS'bcookie'
p6
aS'meeboConnect'
p7
aS'version'
p8
aS'active'
p9
aS'partner'
p10
aS'event'
p11
a.(lp1
S'8096f'
p2
a.(lp1
.(lp1
S'k'
aS'pid'
p2
a.(lp1
S'c'
aS't'
aS'v'
a.(lp1
S'83476'
p2
a.(lp1
S'7f5d7'
p2
a.(lp1
S'SAIRND'
p2
a.(lp1
.(lp1
S'81c1c'
p2
a.(lp1
S'a6be8'
p2
a.(lp1
S'ver'
p2
aS'rnd'
p3
a.(lp1
S'b3b6d'
p2
a.(lp1
.(lp1
.(lp1
S'rnd'
p2
a.(lp1
S'875a6'
p2
a.(lp1
S'rnd'
p2
a.(lp1
S'I'
aS'U'
aS'D'
aS'01AD'
p2
aS'V'
a.(lp1
.(lp1
.(lp1
S'ver'
p2
aS'rnd'
p3
a.(lp1
S'ver'
p2
aS'rnd'
p3
a.(lp1
S'referer'
p2
aS'adid'
p3
a.(lp1
S'7de29'
p2
a.(lp1
.(lp1
.(lp1
.(lp1
S'udata'
p2
a.(lp1
S't'
a.(lp1
.(lp1
S'q'
aS'm'
a.(lp1
S't'
a.(lp1
S'wid'
p2
aS'divid'
p3
aS'h'
aS'minute'
p4
aS'w'
aS'rid'
p5
aS'stype'
p6
a.(lp1
.(lp1
S'c'
aS't'
a.(lp1
.(lp1
S'ix'
p2
aS'cc'
p3
aS'SrS3x.code'
p4
aS'SrS2x.code'
p5
aS'v.s'
p6
aS'SAIRND'
p7
aS'v.method'
p8
aS'realplayer.code'
p9
aS'v.installername'
p10
aS'chid'
p11
aS'v.optp'
p12
aS'SrS31.code'
p13
aS'v.rascsi'
p14
aS'v.opac'
p15
aS'hdid'
p16
aS'icbrandid'
p17
aS'clickpotato.code'
p18
aS'rpgoogletb.code'
p19
aS'cid'
p20
aS'rpwcdesktop.code'
p21
aS'rpchrome.code'
p22
aS'browser'
p23
aS'os'
p24
aS'con'
p25
a.(lp1
S'Log'
p2
aS'vid'
p3
aS'ss'
p4
aS'jv'
p5
aS'l'
aS'lt'
p6
aS't'
aS'v'
aS'sc'
p7
aS'hp'
p8
aS'ct'
p9
a.(lp1
S'show_faces'
p2
aS'locale'
p3
aS'height'
p4
aS'width'
p5
aS'href'
p6
aS'action'
p7
a.(lp1
S'71a3c'
p2
a.(lp1
S'rnd'
p2
a.(lp1
S'a1a3e'
p2
a.(lp1
S'c'
aS't'
a.(lp1
S'766a7'
p2
a.(lp1
S'74a74'
p2
a.(lp1
S't'
a.(lp1
S'ver'
p2
aS'rnd'
p3
a.(lp1
S'6f4e2'
p2
a.(lp1
S'mac'
p2
aS'vinfo'
p3
aS'dbg'
p4
aS'curtime'
p5
a.(lp1
.(lp1
S'8559b'
p2
a.(lp1
.(lp1
S'logdata'
p2
aS'appcheck'
p3
aS'pid'
p4
aS'ver'
p5
aS'prj'
p6
a.(lp1
.(lp1
.(lp1
.(lp1
S'n'
aS's'
aS'v'
aS'ttl'
p2
a.(lp1
.(lp1
.(lp1
S'p'
aS's'
a.(lp1
.(lp1
S'uid'
p2
a.(lp1
.(lp1
S'aa845'
p2
a.(lp1
S'web_id'
p2
aS'id'
p3
a.(lp1
S'v74'
p2
aS'tq'
p3
a.(lp1
.(lp1
S'a72dd'
p2
a.(lp1
.(lp1
S'd'
a.(lp1
S'ver'
p2
aS'rnd'
p3
a.(lp1
.(lp1
S'wid'
p2
aS'uid'
p3
aS'col'
p4
aS'pid'
p5
aS'idsess'
p6
aS'ssl'
p7
aS'href'
p8
aS'visitor'
p9
aS'hei'
p10
a.(lp1
S'action'
p2
aS'origen'
p3
aS'program'
p4
aS'PartnerId'
p5
a.(lp1
S'724fa'
p2
a.(lp1
.(lp1
S'ver'
p2
aS'rnd'
p3
a.(lp1
S'logdata'
p2
aS'appcheck'
p3
aS'pid'
p4
aS'ver'
p5
aS'prj'
p6
a.(lp1
.(lp1
S'ver'
p2
aS'rnd'
p3
a.(lp1
S'a08e8'
p2
a.(lp1
S'r'
a.(lp1
.(lp1
S'm'
aS'u'
aS'v'
a.(lp1
S'id'
p2
a.(lp1
S'a2af7'
p2
a.(lp1
.(lp1
S'9e301'
p2
a.(lp1
.(lp1
.(lp1
S'version'
p2
a.(lp1
.(lp1
.(lp1
.(lp1
S'7fb07'
p2
a.(lp1
S'frandom'
p2
aS'userid'
p3
aS'old'
p4
aS'ver'
p5
aS'address'
p6
a.(lp1
S'6fe77'
p2
a.(lp1
.(lp1
S'q'
a.(lp1
S'rnd'
p2
a.(lp1
S'bad80'
p2
a.(lp1
S'rnd'
p2
a.(lp1
.(lp1
S'adv'
p2
a.(lp1
S'pplacement_id'
p2
aS'site_id'
p3
aS'r_num'
p4
a.(lp1
.(lp1
.(lp1
S'qy'
p2
aS'bn'
p3
aS'siteurl'
p4
aS'refurl'
p5
aS'moveurl'
p6
a.(lp1
.(lp1
S'cddtc'
p2
aS'query'
p3
a.(lp1
S's'
aS'eid'
p2
a.(lp1
.(lp1
.(lp1
.(lp1
S'rnd'
p2
a.(lp1
S'd'
a.(lp1
.(lp1
S'search'
p2
aS'imageHost'
p3
aS'color1'
p4
aS'leftSep2'
p5
aS'leftSep1'
p6
aS'color2'
p7
aS'colorSchemeCode'
p8
aS'contentBg'
p9
a.(lp1
S'7b302'
p2
a.(lp1
S't'
a.(lp1
S'tq'
p2
a.(lp1
S'dotnet'
p2
aS'p'
a.(lp1
.(lp1
S'ver'
p2
aS'rnd'
p3
a.(lp1
S't'
a.(lp1
S'80642'
p2
a.(lp1
S'a68db'
p2
a.(lp1
.(lp1
.(lp1
S'id'
p2
aS'rnd'
p3
a.(lp1
S'SAIRND'
p2
a.(lp1
S'popunder'
p2
aS'domainname'
p3
aS'adultfilter'
p4
aS'a_id'
p5
a.(lp1
S'v.offer'
p2
aS'v.sid'
p3
a.(lp1
S'v.offer'
p2
aS'v.sid'
p3
a.(lp1
S'79ff7'
p2
a.(lp1
.(lp1
S'product_key'
p2
aS'language'
p3
aS'signature'
p4
aS'cltzone'
p5
aS'clientv'
p6
aS'v'
aS'mstime'
p7
aS'os'
p8
aS'method'
p9
a.(lp1
.(lp1
.(lp1
.(lp1
.(lp1
S'7d668'
p2
a.(lp1
.(lp1
S'doppl'
p2
aS'dopsig'
p3
aS'dopvhost'
p4
aS't'
a.(lp1
.(lp1
.(lp1
S'771a3'
p2
a.(lp1
S'aid'
p2
aS'page'
p3
aS'ts'
p4
a.(lp1
.(lp1
S'qq'
p2
a.(lp1
S'Epoch'
p2
a.(lp1
S'7a287'
p2
a.(lp1
S'status'
p2
aS'extra'
p3
aS'system'
p4
aS'n'
aS'type'
p5
aS'id'
p6
a.(lp1
S'tq'
p2
a.(lp1
S'keywordCharEnc'
p2
aS'outputCharEnc'
p3
aS'ref'
p4
aS'sq'
p5
aS'serveUrl'
p6
aS'adultFilter'
p7
aS'affilData'
p8
aS'maxCount'
p9
aS'Keywords'
p10
aS'Partner'
p11
aS'type'
p12
a.(lp1
S'6d0ef'
p2
a.(lp1
S'a'
aS'n'
a.(lp1
S'ver'
p2
aS'rnd'
p3
a.(lp1
S'oo'
p2
aS'nbCode'
p3
a.(lp1
S'route'
p2
aS'brand'
p3
aS'userid'
p4
aS'flow'
p5
aS'hl'
p6
aS'v'
aS'ci_app'
p7
aS'gl'
p8
aS'event'
p9
a.(lp1
S'utmsc'
p2
aS'utmhid'
p3
aS'utmac'
p4
aS'utmwv'
p5
aS'utmr'
p6
aS'utmn'
p7
aS'utmhn'
p8
aS'utmp'
p9
aS'utmdt'
p10
aS'utmsr'
p11
aS'utmcs'
p12
aS'utmul'
p13
aS'utmfl'
p14
aS'utmje'
p15
aS'utmcn'
p16
aS'utmcc'
p17
a.(lp1
S'rnd'
p2
a.(lp1
.(lp1
.(lp1
S't'
a.(lp1
S'82321'
p2
a.(lp1
S'ver'
p2
aS'rnd'
p3
a.(lp1
S'advId'
p2
aS'bn'
p3
aS'pid'
p4
aS'nid'
p5
aS'part'
p6
aS'parentid'
p7
a.(lp1
S'ver'
p2
aS'rnd'
p3
a.(lp1
S'fxp'
p2
a.(lp1
.(lp1
S'ver'
p2
aS'rnd'
p3
a.(lp1
.(lp1
S'rdp'
p2
aS'zip'
p3
aS'item'
p4
aS'type'
p5
aS'id'
p6
aS'name'
p7
a.(lp1
S'a0ef3'
p2
aS'id'
p3
a.(lp1
S'Log'
p2
aS'vid'
p3
aS'ss'
p4
aS'jv'
p5
aS'l'
aS'lt'
p6
aS't'
aS'v'
aS'sc'
p7
aS'hp'
p8
aS'ct'
p9
a.(lp1
S'SAIRND'
p2
a.(lp1
.(lp1
.(lp1
S'75215'
p2
a.(lp1
S'84abd'
p2
a.(lp1
S'74ce5'
p2
a.(lp1
S'72662'
p2
a.(lp1
S'ad541'
p2
a.(lp1
S't'
a.(lp1
S'72da5'
p2
a.(lp1
S'utmsc'
p2
aS'utmwv'
p3
aS'utmn'
p4
aS'utmfl'
p5
aS'utmp'
p6
aS'utmdt'
p7
aS'utmsr'
p8
aS'utmjv'
p9
aS'utmul'
p10
aS'utmhn'
p11
aS'utmje'
p12
a.(lp1
S'utmcs'
p2
aS'utmhid'
p3
aS'utmac'
p4
aS'utmwv'
p5
aS'utmr'
p6
aS'utmn'
p7
aS'utmhn'
p8
aS'utmp'
p9
aS'utmsr'
p10
aS'utms'
p11
aS'utmu'
p12
aS'utmsc'
p13
aS'utmul'
p14
aS'utmfl'
p15
aS'utmje'
p16
aS'utmcc'
p17
a.(lp1
S'mtrpath'
p2
aS'sendparam'
p3
aS'act'
p4
a.(lp1
S'v.offer'
p2
aS'v.sid'
p3
a.(lp1
S'B'
aS'e'
aS'f'
aS'I'
aS'o'
aS'x-cookie'
p2
aS'S'
aS'r'
aS'u'
aS'_salt'
p3
aS'SIG'
p4
aS'Z'
a.(lp1
.(lp1
S'utm_term'
p2
aS'utm_campaign'
p3
aS'utm_content'
p4
aS'utm_source'
p5
aS'utm_format'
p6
aS'utm_medium'
p7
a.(lp1
.(lp1
.(lp1
S'SAIRND'
p2
a.(lp1
S'a48c0'
p2
a.(lp1
S'adv'
p2
a.(lp1
S'79817'
p2
a.(lp1
.(lp1
S'c'
aS't'
aS'v'
a.(lp1
S'id'
p2
a.(lp1
S'8194d'
p2
a.(lp1
S'rnd'
p2
a.(lp1
S'b8910'
p2
a.(lp1
S'n'
a.(lp1
S'a07bf'
p2
a.(lp1
S't'
a.(lp1
.(lp1
S'sess'
p2
a.(lp1
S'uid'
p2
a.(lp1
.(lp1
.(lp1
S'ver'
p2
aS'rnd'
p3
a.(lp1
S'80e03'
p2
a.(lp1
.(lp1
S'bl'
p2
aS'rnd'
p3
aS'cnid'
p4
aS'cuid'
p5
a.(lp1
S'ver'
p2
aS'rnd'
p3
a.(lp1
S'd'
a.(lp1
S'kwd'
p2
aS'cid'
p3
a.(lp1
S'b8557'
p2
a.(lp1
.(lp1
S'id_compteur'
p2
aS'ideffi'
p3
aS'referer'
p4
a.(lp1
.(lp1
S't'
a.(lp1
.(lp1
S'aid'
p2
aS'fw_key'
p3
aS'uid'
p4
a.(lp1
S'qs'
p2
aS'title'
p3
a.(lp1
.(lp1
.(lp1
.(lp1
S'b0c20'
p2
a.(lp1
S'ClickTAG'
p2
a.(lp1
S'9f428'
p2
a.(lp1
S'75eb8'
p2
a.(lp1
.(lp1
S'7e9c1'
p2
a.(lp1
S'7d465'
p2
a.(lp1
S'pid'
p2
a.(lp1
.(lp1
S'put'
p2
aS'expires'
p3
aS'nid'
p4
aS'v'
a.(lp1
.(lp1
.(lp1
S'zx'
p2
aS'targetBlogID'
p3
a.(lp1
.(lp1
S'7bc1a'
p2
a.(lp1
.(lp1
S'tq'
p2
a.(lp1
S'stat'
p2
aS'ccrc'
p3
aS'ver'
p4
aS'os'
p5
aS'plg'
p6
aS'ut'
p7
aS'guid'
p8
aS'ie'
p9
aS'cpu'
p10
aS'md5'
p11
a.(lp1
.(lp1
S'ver'
p2
aS'rnd'
p3
a.(lp1
S'd'
a.(lp1
S'user_id'
p2
aS'socks'
p3
aS'crc'
p4
aS'version_id'
p5
aS'passphrase'
p6
aS'build'
p7
a.(lp1
S't'
a.(lp1
S't'
a.(lp1
S'SAIRND'
p2
a.(lp1
.(lp1
.(lp1
.(lp1
S'7b4c7'
p2
a.(lp1
S'rnd'
p2
a.(lp1
S'nba'
p2
aS'code'
p3
aS'affid'
p4
a.(lp1
S'v.offer'
p2
aS'v.sid'
p3
a.(lp1
S'brand'
p2
aS'userid'
p3
aS'hl'
p4
aS'v'
aS'ci_app'
p5
aS'gl'
p6
a.(lp1
.(lp1
.(lp1
S'rnd'
p2
a.(lp1
S'lc'
p2
aS'wa'
p3
aS'wreply'
p4
aS'mkt'
p5
aS'rpsnv'
p6
aS'wp'
p7
aS'rver'
p8
aS'id'
p9
aS'ct'
p10
a.(lp1
S'bf0d2'
p2
a.(lp1
S'767a1'
p2
a.(lp1
S'a35b5'
p2
a.(lp1
S'q'
aS'dp'
p2
a.(lp1
S'a9818'
p2
a.(lp1
.(lp1
S't'
a.(lp1
S'clickTAG'
p2
a.(lp1
S'version'
p2
aS'installed'
p3
a.(lp1
.(lp1
S'rnd'
p2
a.(lp1
.(lp1
S'93f7e'
p2
a.(lp1
S'data'
p2
a.(lp1
S'rnd'
p2
a.(lp1
S'web_id'
p2
aS'id'
p3
aS'show'
p4
a.(lp1
S'k'
a.(lp1
S'tq'
p2
a.(lp1
.(lp1
S'q'
aS'ptype'
p2
a.(lp1
S'u'
aS's'
aS'Z'
aS'r'
aS'_salt'
p2
a.(lp1
S'uid'
p2
a.(lp1
S'qs'
p2
a.(lp1
S'bbb8a'
p2
a.(lp1
S'rnd'
p2
a.(lp1
S'hop'
p2
a.(lp1
S'record'
p2
aS'jkfwkey'
p3
a.(lp1
S'uid'
p2
aS'tm'
p3
aS'cht'
p4
aS'v'
aS'os'
p5
aS'r1'
p6
a.(lp1
S'ver'
p2
aS'rnd'
p3
a.(lp1
S't'
a.(lp1
S'ver'
p2
aS'rnd'
p3
a.(lp1
.(lp1
S'max'
p2
aS'pt'
p3
aS'ec'
p4
aS'query'
p5
a.(lp1
.(lp1
S'b9c59'
p2
a.(lp1
S'Log'
p2
aS'vid'
p3
aS'ss'
p4
aS'jv'
p5
aS'l'
aS'lt'
p6
aS't'
aS'v'
aS'sc'
p7
aS'hp'
p8
aS'ct'
p9
a.(lp1
S'rtime'
p2
aS'lg'
p3
aS'showp'
p4
aS'repeatip'
p5
aS'st'
p6
aS'cnzz_eid'
p7
aS'res'
p8
aS'ntime'
p9
aS'id'
p10
a.(lp1
S'adb2c'
p2
a.(lp1
.(lp1
S'data'
p2
a.(lp1
.(lp1
S'7c89d'
p2
a.(lp1
S'version'
p2
aS'fxp'
p3
a.(lp1
.(lp1
.(lp1
S'rnd'
p2
a.(lp1
S'a751f'
p2
a.(lp1
S'a9142'
p2
a.(lp1
.(lp1
S'body'
p2
aS'mail'
p3
aS'subject'
p4
a.(lp1
S'ver'
p2
aS'rnd'
p3
a.(lp1
S'c'
aS't'
a.(lp1
S'add'
p2
a.(lp1
S'vinfo'
p2
aS'dbg'
p3
aS'curtime'
p4
a.(lp1
S'm'
aS'vc'
p2
aS'ver'
p3
aS't'
aS'p'
a.(lp1
S'9c1ae'
p2
a.(lp1
S'rnd'
p2
a.(lp1
S'c'
aS't'
aS'v'
a.(lp1
S'username'
p2
aS'area'
p3
aS'mac'
p4
aS'rank'
p5
aS'server'
p6
aS'pwd'
p7
aS'channel'
p8
a.(lp1
.(lp1
S'pplacement_id'
p2
aS'site_id'
p3
aS'r_num'
p4
a.(lp1
.(lp1
.(lp1
S'tq'
p2
a.(lp1
.(lp1
S'll'
p2
aS'spn'
p3
aS'output'
p4
aS'brcurrent'
p5
aS'z'
aS'ie'
p6
a.(lp1
S'b1c7b'
p2
a.(lp1
S'88cd7'
p2
a.(lp1
S'v.offer'
p2
aS'v.sid'
p3
a.(lp1
S'rnd'
p2
a.(lp1
.(lp1
S'874fa'
p2
a.(lp1
S'rnd'
p2
a.(lp1
.(lp1
S'code'
p2
aS'flashnum'
p3
aS'sid'
p4
a.(lp1
S'a15d9'
p2
a.(lp1
S'ver'
p2
aS'rnd'
p3
a.(lp1
S'm'
aS'u'
aS'v'
a.(lp1
S'789a0'
p2
a.(lp1
S'aid'
p2
aS'page'
p3
aS'ts'
p4
a.(lp1
S'q'
aS'dg'
p2
a.(lp1
S'uid'
p2
a.(lp1
S'def387'
p2
a.(lp1
S'v'
a.(lp1
S'ver'
p2
aS'rnd'
p3
a.(lp1
S'722f7'
p2
a.(lp1
S'7fa0d'
p2
a.(lp1
.(lp1
S'v.offer'
p2
a.(lp1
.(lp1
.(lp1
S'adv'
p2
aS'c'
aS'id'
p3
a.(lp1
S'p'
aS'rnd'
p2
aS'l'
aS'sref'
p3
aS'src'
p4
a.(lp1
S'affid'
p2
a.(lp1
S'7437f'
p2
a.(lp1
.(lp1
S'retries'
p2
aS'b'
aS'cid'
p3
aS'svcver'
p4
aS'upd_inst'
p5
aS'vn'
p6
aS'init_inst'
p7
aS'prt'
p8
aS'tbver'
p9
aS'partner'
p10
aS'uconf'
p11
a.(lp1
.(lp1
S'rnd'
p2
a.(lp1
.(lp1
S'ver'
p2
aS'rnd'
p3
a.(lp1
.(lp1
S'7f6d1'
p2
a.(lp1
.(lp1
S't'
a.(lp1
.(lp1
.(lp1
S'navbarType'
p2
aS'publishMode'
p3
aS'searchRoot'
p4
aS'blogLocale'
p5
aS'targetBlogID'
p6
aS'blogName'
p7
aS'layoutType'
p8
aS'vt'
p9
aS'homepageUrl'
p10
a.(lp1
S'a0d3e'
p2
a.(lp1
S't'
a.(lp1
.(lp1
S'9f7c2'
p2
a.(lp1
S'c'
aS't'
aS'v'
a.(lp1
S'7de29'
p2
a.(lp1
S'72ae6'
p2
a.(lp1
.(lp1
S'web_id'
p2
aS'id'
p3
aS'show'
p4
a.(lp1
.(lp1
S'ver'
p2
aS'rnd'
p3
a.(lp1
S'c'
aS't'
a.(lp1
.(lp1
S'734aa'
p2
a.(lp1
.(lp1
S't'
a.(lp1
S'v32'
p2
aS'tq'
p3
a.(lp1
S'ver'
p2
aS'rnd'
p3
a.(lp1
S'af24e'
p2
a.(lp1
S'ver'
p2
aS'rnd'
p3
a.(lp1
S'B'
aS'f'
aS'o'
aS'x-cookie'
p2
aS's'
aS'r'
aS'u'
aS'_salt'
p3
aS'SIG'
p4
aS'Z'
a.(lp1
.(lp1
.(lp1
.(lp1
.(lp1
S'ver'
p2
aS'tgid'
p3
aS'flag'
p4
aS'regk'
p5
aS'address'
p6
aS'frandom'
p7
a.(lp1
.(lp1
S'src'
p2
a.(lp1
S't'
a.(lp1
.(lp1
S'c'
aS't'
a.(lp1
S'aa99d'
p2
a.(lp1
.(lp1
.(lp1
.(lp1
.(lp1
.