(lp1
S'rnd'
p2
a.(lp1
S't'
a.(lp1
S't'
a.(lp1
S'rnd'
p2
a.(lp1
.(lp1
S't'
a.(lp1
S'rnd'
p2
a.(lp1
S'rnd'
p2
a.(lp1
S't'
a.(lp1
S't'
a.(lp1
S't'
a.(lp1
S't'
a.(lp1
S't'
a.(lp1
S't'
a.(lp1
S't'
a.(lp1
S't'
a.(lp1
S'rnd'
p2
a.(lp1
.(lp1
S't'
a.(lp1
S'rnd'
p2
a.